	.file	"esc_ctrl.c"
	.option nopic
	.attribute arch, "rv32i2p1_m2p0_a2p1_f2p2_c2p0_zicsr2p0_zifencei2p0_xv5p0"
	.attribute unaligned_access, 0
	.attribute stack_align, 16
	.text
.Ltext0:
	.cfi_sections	.debug_frame
	.file 1 "D:\\Document\\Project\\001_FlightControl\\code\\test_v1_20241112\\test_v1\\APP\\Source\\esc_ctrl.c"
	.section	.text.__nds__rotr,"ax",@progbits
	.align	1
	.type	__nds__rotr, @function
__nds__rotr:
.LFB290:
	.file 2 "D:/Document/Project/001_FlightControl/code/test_v1_20241112/test_v1/HPM5361/Compenets/nds_dsp/gcc_nds_intrinsic.h"
	.loc 2 2143 1
	.cfi_startproc
	addi	sp,sp,-32
	.cfi_def_cfa_offset 32
	sw	a0,12(sp)
	sw	a1,8(sp)
	.loc 2 2144 16
	lw	a5,8(sp)
	andi	a5,a5,31
	sw	a5,28(sp)
	.loc 2 2145 24
	lw	a5,12(sp)
	lw	a4,28(sp)
	srl	a4,a5,a4
	lw	a3,28(sp)
	neg	a3,a3
	andi	a3,a3,31
	sll	a5,a5,a3
	or	a5,a5,a4
	.loc 2 2146 1
	mv	a0,a5
	addi	sp,sp,32
	.cfi_def_cfa_offset 0
	jr	ra
	.cfi_endproc
.LFE290:
	.size	__nds__rotr, .-__nds__rotr
	.section	.text.__nds__wsbh,"ax",@progbits
	.align	1
	.type	__nds__wsbh, @function
__nds__wsbh:
.LFB291:
	.loc 2 2149 1
	.cfi_startproc
	addi	sp,sp,-32
	.cfi_def_cfa_offset 32
	sw	a0,12(sp)
	.loc 2 2150 16
	lw	a5,12(sp)
	andi	a5,a5,255
	sw	a5,28(sp)
	.loc 2 2151 24
	lw	a5,12(sp)
	srli	a5,a5,8
	.loc 2 2151 16
	andi	a5,a5,255
	sw	a5,24(sp)
	.loc 2 2152 24
	lw	a5,12(sp)
	srli	a5,a5,16
	.loc 2 2152 16
	andi	a5,a5,255
	sw	a5,20(sp)
	.loc 2 2153 16
	lw	a5,12(sp)
	srli	a5,a5,24
	sw	a5,16(sp)
	.loc 2 2154 14
	lw	a5,28(sp)
	slli	a4,a5,8
	.loc 2 2154 20
	lw	a5,24(sp)
	or	a4,a4,a5
	.loc 2 2154 38
	lw	a5,20(sp)
	slli	a5,a5,24
	.loc 2 2154 32
	or	a4,a4,a5
	.loc 2 2154 51
	lw	a5,16(sp)
	slli	a5,a5,16
	.loc 2 2154 45
	or	a5,a4,a5
	.loc 2 2155 1
	mv	a0,a5
	addi	sp,sp,32
	.cfi_def_cfa_offset 0
	jr	ra
	.cfi_endproc
.LFE291:
	.size	__nds__wsbh, .-__nds__wsbh
	.globl	T_PWM
	.section	.sbss.T_PWM,"aw",@nobits
	.align	2
	.type	T_PWM, @object
	.size	T_PWM, 4
T_PWM:
	.zero	4
	.globl	T_SQRT3
	.section	.sbss.T_SQRT3,"aw",@nobits
	.align	2
	.type	T_SQRT3, @object
	.size	T_SQRT3, 4
T_SQRT3:
	.zero	4
	.globl	T_MAX
	.section	.sbss.T_MAX,"aw",@nobits
	.align	2
	.type	T_MAX, @object
	.size	T_MAX, 4
T_MAX:
	.zero	4
	.globl	vel_lr_data
	.section	.bss.vel_lr_data,"aw",@nobits
	.align	2
	.type	vel_lr_data, @object
	.size	vel_lr_data, 84
vel_lr_data:
	.zero	84
	.globl	vel_lr_by_angle
	.section	.bss.vel_lr_by_angle,"aw",@nobits
	.align	2
	.type	vel_lr_by_angle, @object
	.size	vel_lr_by_angle, 192
vel_lr_by_angle:
	.zero	192
	.globl	angle_rate_pid
	.section	.bss.angle_rate_pid,"aw",@nobits
	.align	2
	.type	angle_rate_pid, @object
	.size	angle_rate_pid, 624
angle_rate_pid:
	.zero	624
	.globl	esc_ctrl
	.section	.bss.esc_ctrl,"aw",@nobits
	.align	2
	.type	esc_ctrl, @object
	.size	esc_ctrl, 156
esc_ctrl:
	.zero	156
	.globl	esc_ctrl_flag
	.section	.sbss.esc_ctrl_flag,"aw",@nobits
	.type	esc_ctrl_flag, @object
	.size	esc_ctrl_flag, 1
esc_ctrl_flag:
	.zero	1
	.globl	mytest_d_ref
	.section	.sbss.mytest_d_ref,"aw",@nobits
	.align	1
	.type	mytest_d_ref, @object
	.size	mytest_d_ref, 2
mytest_d_ref:
	.zero	2
	.globl	mytest_d_state
	.section	.sbss.mytest_d_state,"aw",@nobits
	.type	mytest_d_state, @object
	.size	mytest_d_state, 1
mytest_d_state:
	.zero	1
	.section	.text.remo_esc_ctrl_init,"ax",@progbits
	.align	1
	.globl	remo_esc_ctrl_init
	.type	remo_esc_ctrl_init, @function
remo_esc_ctrl_init:
.LFB527:
	.loc 1 183 1
	.cfi_startproc
	addi	sp,sp,-32
	.cfi_def_cfa_offset 32
	sw	ra,28(sp)
	.cfi_offset 1, -4
.LBB2:
	.loc 1 184 18
	sb	zero,15(sp)
	.loc 1 184 5
	j	.L6
.L7:
	.loc 1 186 20
	lbu	a3,15(sp)
	.loc 1 186 28
	lui	a5,%hi(esc_ctrl)
	addi	a4,a5,%lo(esc_ctrl)
	li	a5,52
	mul	a5,a3,a5
	add	a5,a4,a5
	sw	zero,0(a5)
	.loc 1 187 20
	lbu	a3,15(sp)
	.loc 1 187 35
	lui	a5,%hi(esc_ctrl)
	addi	a4,a5,%lo(esc_ctrl)
	li	a5,52
	mul	a5,a3,a5
	add	a5,a4,a5
	sb	zero,6(a5)
	.loc 1 188 20
	lbu	a3,15(sp)
	.loc 1 188 36
	lui	a5,%hi(esc_ctrl)
	addi	a4,a5,%lo(esc_ctrl)
	li	a5,52
	mul	a5,a3,a5
	add	a5,a4,a5
	sb	zero,7(a5)
	.loc 1 189 20
	lbu	a3,15(sp)
	.loc 1 189 31
	lui	a5,%hi(esc_ctrl)
	addi	a4,a5,%lo(esc_ctrl)
	li	a5,52
	mul	a5,a3,a5
	add	a5,a4,a5
	sb	zero,8(a5)
	.loc 1 190 20
	lbu	a3,15(sp)
	.loc 1 190 32
	lui	a5,%hi(esc_ctrl)
	addi	a4,a5,%lo(esc_ctrl)
	li	a5,52
	mul	a5,a3,a5
	add	a5,a4,a5
	sb	zero,9(a5)
	.loc 1 191 20
	lbu	a3,15(sp)
	.loc 1 191 42
	lui	a5,%hi(esc_ctrl)
	addi	a4,a5,%lo(esc_ctrl)
	li	a5,52
	mul	a5,a3,a5
	add	a5,a4,a5
	sb	zero,10(a5)
	.loc 1 192 34
	lbu	a3,15(sp)
	.loc 1 192 39
	lui	a5,%hi(esc_ctrl)
	addi	a4,a5,%lo(esc_ctrl)
	li	a5,52
	mul	a5,a3,a5
	add	a5,a4,a5
	li	a4,16384
	sh	a4,20(a5)
	.loc 1 193 34
	lbu	a3,15(sp)
	.loc 1 193 39
	lui	a5,%hi(esc_ctrl)
	addi	a4,a5,%lo(esc_ctrl)
	li	a5,52
	mul	a5,a3,a5
	add	a5,a4,a5
	sh	zero,18(a5)
	.loc 1 194 32
	lbu	a3,15(sp)
	.loc 1 194 35
	lui	a5,%hi(esc_ctrl)
	addi	a4,a5,%lo(esc_ctrl)
	li	a5,52
	mul	a5,a3,a5
	add	a5,a4,a5
	sw	zero,24(a5)
	.loc 1 195 32
	lbu	a3,15(sp)
	.loc 1 195 35
	lui	a5,%hi(esc_ctrl)
	addi	a4,a5,%lo(esc_ctrl)
	li	a5,52
	mul	a5,a3,a5
	add	a5,a4,a5
	sw	zero,28(a5)
	.loc 1 196 37
	lbu	a3,15(sp)
	.loc 1 196 40
	lui	a5,%hi(esc_ctrl)
	addi	a4,a5,%lo(esc_ctrl)
	li	a5,52
	mul	a5,a3,a5
	add	a5,a4,a5
	sw	zero,32(a5)
	.loc 1 197 37
	lbu	a3,15(sp)
	.loc 1 197 40
	lui	a5,%hi(esc_ctrl)
	addi	a4,a5,%lo(esc_ctrl)
	li	a5,52
	mul	a5,a3,a5
	add	a5,a4,a5
	sw	zero,36(a5)
	.loc 1 199 20
	lbu	a3,15(sp)
	.loc 1 199 37
	lui	a5,%hi(esc_ctrl)
	addi	a4,a5,%lo(esc_ctrl)
	li	a5,52
	mul	a5,a3,a5
	add	a5,a4,a5
	sh	zero,16(a5)
	.loc 1 200 20
	lbu	a3,15(sp)
	.loc 1 200 37
	lui	a5,%hi(esc_ctrl)
	addi	a4,a5,%lo(esc_ctrl)
	li	a5,52
	mul	a5,a3,a5
	add	a5,a4,a5
	li	a4,24576
	addi	a4,a4,-576
	sh	a4,4(a5)
	.loc 1 203 9
	lbu	a5,15(sp)
	mv	a0,a5
	call	angle_hall_reset_speed_fit
	.loc 1 204 26
	lbu	a3,15(sp)
	.loc 1 204 37
	lui	a5,%hi(angle_rate_pid)
	addi	a4,a5,%lo(angle_rate_pid)
	li	a5,208
	mul	a5,a3,a5
	add	a5,a4,a5
	sb	zero,0(a5)
	.loc 1 205 26
	lbu	a3,15(sp)
	.loc 1 205 37
	lui	a5,%hi(angle_rate_pid)
	addi	a4,a5,%lo(angle_rate_pid)
	li	a5,208
	mul	a5,a3,a5
	add	a5,a4,a5
	lui	a4,%hi(.LC0)
	flw	fa5,%lo(.LC0)(a4)
	fsw	fa5,72(a5)
	.loc 1 207 67
	lbu	a4,15(sp)
	.loc 1 207 9
	li	a5,208
	mul	a5,a4,a5
	addi	a4,a5,16
	lui	a5,%hi(angle_rate_pid)
	addi	a5,a5,%lo(angle_rate_pid)
	add	a5,a4,a5
	addi	a4,a5,12
	lui	a5,%hi(.LC1)
	flw	fa3,%lo(.LC1)(a5)
	lui	a5,%hi(.LC2)
	flw	fa4,%lo(.LC2)(a5)
	lui	a5,%hi(.LC3)
	flw	fa5,%lo(.LC3)(a5)
	mv	a0,a4
	fmv.s	fa2,fa3
	fmv.s	fa1,fa4
	fmv.s	fa0,fa5
	call	nonlinear_unit_init
	.loc 1 208 60
	lbu	a4,15(sp)
	.loc 1 208 9
	li	a5,208
	mul	a5,a4,a5
	addi	a4,a5,32
	lui	a5,%hi(angle_rate_pid)
	addi	a5,a5,%lo(angle_rate_pid)
	add	a5,a4,a5
	addi	a4,a5,8
	lui	a5,%hi(.LC1)
	flw	fa3,%lo(.LC1)(a5)
	lui	a5,%hi(.LC4)
	flw	fa4,%lo(.LC4)(a5)
	lui	a5,%hi(.LC5)
	flw	fa5,%lo(.LC5)(a5)
	mv	a0,a4
	fmv.s	fa2,fa3
	fmv.s	fa1,fa4
	fmv.s	fa0,fa5
	call	nonlinear_unit_init
	.loc 1 209 58
	lbu	a4,15(sp)
	.loc 1 209 9
	li	a5,208
	mul	a5,a4,a5
	addi	a4,a5,48
	lui	a5,%hi(angle_rate_pid)
	addi	a5,a5,%lo(angle_rate_pid)
	add	a5,a4,a5
	addi	a4,a5,4
	lui	a5,%hi(.LC6)
	flw	fa4,%lo(.LC6)(a5)
	lui	a5,%hi(.LC7)
	flw	fa5,%lo(.LC7)(a5)
	mv	a0,a4
	fmv.s	fa2,fa4
	fmv.s.x	fa1,zero
	fmv.s	fa0,fa5
	call	nonlinear_unit_init
	.loc 1 210 26
	lbu	a3,15(sp)
	.loc 1 210 34
	lui	a5,%hi(angle_rate_pid)
	addi	a4,a5,%lo(angle_rate_pid)
	li	a5,208
	mul	a5,a3,a5
	add	a5,a4,a5
	lui	a4,%hi(.LC6)
	flw	fa5,%lo(.LC6)(a4)
	fsw	fa5,20(a5)
	.loc 1 211 26
	lbu	a3,15(sp)
	.loc 1 211 34
	lui	a5,%hi(angle_rate_pid)
	addi	a4,a5,%lo(angle_rate_pid)
	li	a5,208
	mul	a5,a3,a5
	add	a5,a4,a5
	fmv.s.x	fa5,zero
	fsw	fa5,152(a5)
	.loc 1 212 26
	lbu	a3,15(sp)
	.loc 1 212 36
	lui	a5,%hi(angle_rate_pid)
	addi	a4,a5,%lo(angle_rate_pid)
	li	a5,208
	mul	a5,a3,a5
	add	a5,a4,a5
	lui	a4,%hi(.LC8)
	flw	fa5,%lo(.LC8)(a4)
	fsw	fa5,200(a5)
	.loc 1 213 26
	lbu	a3,15(sp)
	.loc 1 213 37
	lui	a5,%hi(angle_rate_pid)
	addi	a4,a5,%lo(angle_rate_pid)
	li	a5,208
	mul	a5,a3,a5
	add	a5,a4,a5
	lui	a4,%hi(.LC8)
	flw	fa5,%lo(.LC8)(a4)
	fsw	fa5,204(a5)
	.loc 1 215 89
	lbu	a4,15(sp)
	.loc 1 215 9
	li	a5,208
	mul	a5,a4,a5
	addi	a4,a5,112
	lui	a5,%hi(angle_rate_pid)
	addi	a5,a5,%lo(angle_rate_pid)
	add	a5,a4,a5
	mv	a2,a5
	li	a5,4096
	addi	a1,a5,-256
	li	a0,200
	call	filter_butterworth_lpf_2nd_init
	.loc 1 216 89
	lbu	a4,15(sp)
	.loc 1 216 9
	li	a5,208
	mul	a5,a4,a5
	addi	a4,a5,160
	lui	a5,%hi(angle_rate_pid)
	addi	a5,a5,%lo(angle_rate_pid)
	add	a5,a4,a5
	addi	a5,a5,4
	mv	a2,a5
	li	a5,4096
	addi	a1,a5,-256
	li	a0,200
	call	filter_butterworth_lpf_2nd_init
	.loc 1 217 57
	lbu	a4,15(sp)
	.loc 1 217 9
	li	a5,208
	mul	a4,a4,a5
	lui	a5,%hi(angle_rate_pid)
	addi	a5,a5,%lo(angle_rate_pid)
	add	a5,a4,a5
	mv	a0,a5
	call	ctrl_pid_controller_init_err_fit
	.loc 1 184 50 discriminator 3
	lbu	a5,15(sp)
	addi	a5,a5,1
	sb	a5,15(sp)
.L6:
	.loc 1 184 27 discriminator 1
	lbu	a4,15(sp)
	li	a5,2
	bleu	a4,a5,.L7
.LBE2:
	.loc 1 221 13
	call	remo_pwm_get_pwm_reload_value
	mv	a5,a0
	.loc 1 221 44 discriminator 1
	addi	a4,a5,1
	.loc 1 221 11 discriminator 1
	lui	a5,%hi(T_PWM)
	sw	a4,%lo(T_PWM)(a5)
	.loc 1 222 32
	lui	a5,%hi(T_PWM)
	lw	a4,%lo(T_PWM)(a5)
	li	a5,12288
	addi	a5,a5,1901
	mul	a5,a4,a5
	.loc 1 222 40
	srli	a4,a5,13
	.loc 1 222 13
	lui	a5,%hi(T_SQRT3)
	sw	a4,%lo(T_SQRT3)(a5)
	.loc 1 223 14
	lui	a5,%hi(T_PWM)
	lw	a5,%lo(T_PWM)(a5)
	.loc 1 223 30
	slli	a4,a5,15
	.loc 1 223 11
	lui	a5,%hi(T_MAX)
	sw	a4,%lo(T_MAX)(a5)
	.loc 1 224 1
	nop
	lw	ra,28(sp)
	.cfi_restore 1
	addi	sp,sp,32
	.cfi_def_cfa_offset 0
	jr	ra
	.cfi_endproc
.LFE527:
	.size	remo_esc_ctrl_init, .-remo_esc_ctrl_init
	.section	.text.remo_esc_ctrl_update,"ax",@progbits
	.align	1
	.globl	remo_esc_ctrl_update
	.type	remo_esc_ctrl_update, @function
remo_esc_ctrl_update:
.LFB528:
	.loc 1 233 1
	.cfi_startproc
	addi	sp,sp,-32
	.cfi_def_cfa_offset 32
	sw	ra,28(sp)
	.cfi_offset 1, -4
	.loc 1 239 13
	sh	zero,12(sp)
.LBB3:
	.loc 1 241 18
	sb	zero,15(sp)
	.loc 1 241 5
	j	.L9
.L44:
	.loc 1 244 30
	lbu	a3,15(sp)
	lui	a5,%hi(angle_rate_pid)
	addi	a4,a5,%lo(angle_rate_pid)
	li	a5,208
	mul	a5,a3,a5
	add	a5,a4,a5
	lbu	a5,0(a5)
	.loc 1 244 12
	beq	a5,zero,.L10
	.loc 1 246 37
	lbu	a4,15(sp)
	lui	a5,%hi(rate_ctrl_init_flag.4)
	addi	a5,a5,%lo(rate_ctrl_init_flag.4)
	add	a5,a4,a5
	lbu	a5,0(a5)
	.loc 1 246 16
	bne	a5,zero,.L11
	.loc 1 248 17
	lbu	a5,15(sp)
	mv	a0,a5
	call	angle_hall_reset_speed_fit
	.loc 1 249 36
	lbu	a4,15(sp)
	.loc 1 249 40
	lui	a5,%hi(rate_ctrl_init_flag.4)
	addi	a5,a5,%lo(rate_ctrl_init_flag.4)
	add	a5,a4,a5
	li	a4,1
	sb	a4,0(a5)
	.loc 1 250 28
	lbu	a3,15(sp)
	.loc 1 250 39
	lui	a5,%hi(esc_ctrl)
	addi	a4,a5,%lo(esc_ctrl)
	li	a5,52
	mul	a5,a3,a5
	add	a5,a4,a5
	li	a4,4
	sb	a4,8(a5)
.L11:
	.loc 1 253 13
	lbu	a5,15(sp)
	mv	a1,a5
	li	a5,4096
	addi	a0,a5,-256
	call	angle_hall_speed_fit
	.loc 1 254 54
	lbu	a3,15(sp)
	lui	a5,%hi(angle_rate_pid)
	addi	a4,a5,%lo(angle_rate_pid)
	li	a5,208
	mul	a5,a3,a5
	add	a5,a4,a5
	flw	fa4,4(a5)
	.loc 1 254 78
	lbu	a3,15(sp)
	lui	a5,%hi(angle_rate_pid)
	addi	a4,a5,%lo(angle_rate_pid)
	li	a5,208
	mul	a5,a3,a5
	add	a5,a4,a5
	flw	fa5,8(a5)
	.loc 1 254 30
	lbu	a3,15(sp)
	.loc 1 254 59
	fsub.s	fa5,fa4,fa5
	.loc 1 254 35
	lui	a5,%hi(angle_rate_pid)
	addi	a4,a5,%lo(angle_rate_pid)
	li	a5,208
	mul	a5,a3,a5
	add	a5,a4,a5
	fsw	fa5,64(a5)
	.loc 1 255 66
	lbu	a4,15(sp)
	.loc 1 255 31
	li	a5,208
	mul	a4,a4,a5
	lui	a5,%hi(angle_rate_pid)
	addi	a5,a5,%lo(angle_rate_pid)
	add	a5,a4,a5
	mv	a0,a5
	call	ctrl_pid_controller
	fmv.s	fa5,fa0
	.loc 1 255 29 discriminator 1
	fcvt.w.s a5,fa5,rtz
	sh	a5,12(sp)
	.loc 1 256 34
	lbu	a3,15(sp)
	lui	a5,%hi(angle_rate_pid)
	addi	a4,a5,%lo(angle_rate_pid)
	li	a5,208
	mul	a5,a3,a5
	add	a5,a4,a5
	lbu	a4,1(a5)
	.loc 1 256 16
	li	a5,2
	bne	a4,a5,.L12
	.loc 1 258 28
	lbu	a2,15(sp)
	.loc 1 258 36
	lh	a4,12(sp)
	lui	a5,%hi(esc_ctrl)
	addi	a3,a5,%lo(esc_ctrl)
	li	a5,52
	mul	a5,a2,a5
	add	a5,a3,a5
	sw	a4,0(a5)
	.loc 1 259 69
	lbu	a3,15(sp)
	lui	a5,%hi(esc_ctrl)
	addi	a4,a5,%lo(esc_ctrl)
	li	a5,52
	mul	a5,a3,a5
	add	a5,a4,a5
	lw	a5,0(a5)
	.loc 1 259 38
	fcvt.s.w	fa5,a5
	.loc 1 259 96
	lbu	a4,15(sp)
	.loc 1 259 38
	li	a5,208
	mul	a5,a4,a5
	addi	a4,a5,160
	lui	a5,%hi(angle_rate_pid)
	addi	a5,a5,%lo(angle_rate_pid)
	add	a5,a4,a5
	addi	a5,a5,4
	mv	a0,a5
	fmv.s	fa0,fa5
	call	filter_low_pass_2nd
	fmv.s	fa5,fa0
	.loc 1 259 28 discriminator 1
	lbu	a2,15(sp)
	.loc 1 259 36 discriminator 1
	fcvt.w.s a4,fa5,rtz
	lui	a5,%hi(esc_ctrl)
	addi	a3,a5,%lo(esc_ctrl)
	li	a5,52
	mul	a5,a2,a5
	add	a5,a3,a5
	sw	a4,0(a5)
	j	.L12
.L10:
	.loc 1 265 30
	lbu	a3,15(sp)
	.loc 1 265 42
	lui	a5,%hi(angle_rate_pid)
	addi	a4,a5,%lo(angle_rate_pid)
	li	a5,208
	mul	a5,a3,a5
	add	a5,a4,a5
	sb	zero,1(a5)
	.loc 1 266 30
	lbu	a3,15(sp)
	.loc 1 266 38
	lui	a5,%hi(angle_rate_pid)
	addi	a4,a5,%lo(angle_rate_pid)
	li	a5,208
	mul	a5,a3,a5
	add	a5,a4,a5
	fmv.s.x	fa5,zero
	fsw	fa5,152(a5)
	.loc 1 267 30
	lbu	a3,15(sp)
	.loc 1 267 40
	lui	a5,%hi(angle_rate_pid)
	addi	a4,a5,%lo(angle_rate_pid)
	li	a5,208
	mul	a5,a3,a5
	add	a5,a4,a5
	fmv.s.x	fa5,zero
	fsw	fa5,68(a5)
	.loc 1 268 32
	lbu	a4,15(sp)
	.loc 1 268 36
	lui	a5,%hi(rate_ctrl_init_flag.4)
	addi	a5,a5,%lo(rate_ctrl_init_flag.4)
	add	a5,a4,a5
	sb	zero,0(a5)
.L12:
	.loc 1 273 36
	lbu	a3,15(sp)
	lui	a5,%hi(esc_ctrl)
	addi	a4,a5,%lo(esc_ctrl)
	li	a5,52
	mul	a5,a3,a5
	add	a5,a4,a5
	lw	a5,12(a5)
	.loc 1 273 9
	lh	a3,0(a5)
	.loc 1 273 63
	lbu	a4,15(sp)
	.loc 1 273 9
	li	a5,52
	mul	a5,a4,a5
	addi	a4,a5,16
	lui	a5,%hi(esc_ctrl)
	addi	a5,a5,%lo(esc_ctrl)
	add	a5,a4,a5
	addi	a5,a5,2
	mv	a1,a5
	mv	a0,a3
	call	remo_trig_func
	.loc 1 275 24
	lbu	a3,15(sp)
	lui	a5,%hi(esc_ctrl)
	addi	a4,a5,%lo(esc_ctrl)
	li	a5,52
	mul	a5,a3,a5
	add	a5,a4,a5
	lbu	a5,6(a5)
	.loc 1 275 12
	beq	a5,zero,.L13
	.loc 1 277 24
	lbu	a3,15(sp)
	.loc 1 277 39
	lui	a5,%hi(esc_ctrl)
	addi	a4,a5,%lo(esc_ctrl)
	li	a5,52
	mul	a5,a3,a5
	add	a5,a4,a5
	sb	zero,6(a5)
	.loc 1 278 48
	lbu	a3,15(sp)
	.loc 1 278 24
	lbu	a2,15(sp)
	.loc 1 278 48
	lui	a5,%hi(esc_ctrl)
	addi	a4,a5,%lo(esc_ctrl)
	li	a5,52
	mul	a5,a3,a5
	add	a5,a4,a5
	lbu	a4,7(a5)
	.loc 1 278 35
	lui	a5,%hi(esc_ctrl)
	addi	a3,a5,%lo(esc_ctrl)
	li	a5,52
	mul	a5,a2,a5
	add	a5,a3,a5
	sb	a4,8(a5)
.L13:
	.loc 1 280 28
	lbu	a3,15(sp)
	lui	a5,%hi(esc_ctrl)
	addi	a4,a5,%lo(esc_ctrl)
	li	a5,52
	mul	a5,a3,a5
	add	a5,a4,a5
	lbu	a5,8(a5)
	.loc 1 280 9
	li	a4,5
	bgtu	a5,a4,.L14
	slli	a4,a5,2
	lui	a5,%hi(.L16)
	addi	a5,a5,%lo(.L16)
	add	a5,a4,a5
	lw	a5,0(a5)
	jr	a5
	.section	.rodata.remo_esc_ctrl_update,"a",@progbits
	.align	2
	.align	2
.L16:
	.word	.L21
	.word	.L20
	.word	.L19
	.word	.L18
	.word	.L17
	.word	.L45
	.section	.text.remo_esc_ctrl_update
.L21:
	.loc 1 284 40
	lbu	a3,15(sp)
	.loc 1 284 43
	lui	a5,%hi(esc_ctrl)
	addi	a4,a5,%lo(esc_ctrl)
	li	a5,52
	mul	a5,a3,a5
	add	a5,a4,a5
	sw	zero,24(a5)
	.loc 1 285 40
	lbu	a3,15(sp)
	.loc 1 285 43
	lui	a5,%hi(esc_ctrl)
	addi	a4,a5,%lo(esc_ctrl)
	li	a5,52
	mul	a5,a3,a5
	add	a5,a4,a5
	sw	zero,28(a5)
	.loc 1 286 17
	j	.L22
.L20:
	.loc 1 290 37
	lbu	a5,15(sp)
	lui	a4,%hi(wait_delay_count.3)
	addi	a4,a4,%lo(wait_delay_count.3)
	slli	a5,a5,1
	add	a5,a4,a5
	lhu	a4,0(a5)
	.loc 1 290 20
	li	a5,19
	bgtu	a4,a5,.L23
	.loc 1 292 41
	lbu	a5,15(sp)
	lui	a4,%hi(wait_delay_count.3)
	addi	a3,a4,%lo(wait_delay_count.3)
	slli	a4,a5,1
	add	a4,a3,a4
	lhu	a4,0(a4)
	.loc 1 292 45
	addi	a4,a4,1
	slli	a4,a4,16
	srli	a4,a4,16
	lui	a3,%hi(wait_delay_count.3)
	addi	a3,a3,%lo(wait_delay_count.3)
	slli	a5,a5,1
	add	a5,a3,a5
	sh	a4,0(a5)
	j	.L24
.L23:
	.loc 1 294 37
	lbu	a3,15(sp)
	lui	a5,%hi(esc_ctrl)
	addi	a4,a5,%lo(esc_ctrl)
	li	a5,52
	mul	a5,a3,a5
	add	a5,a4,a5
	lbu	a5,9(a5)
	.loc 1 294 25
	bne	a5,zero,.L24
	.loc 1 296 36
	lbu	a3,15(sp)
	.loc 1 296 47
	lui	a5,%hi(esc_ctrl)
	addi	a4,a5,%lo(esc_ctrl)
	li	a5,52
	mul	a5,a3,a5
	add	a5,a4,a5
	li	a4,2
	sb	a4,8(a5)
	.loc 1 297 41
	lbu	a5,15(sp)
	.loc 1 297 45
	lui	a4,%hi(wait_delay_count.3)
	addi	a4,a4,%lo(wait_delay_count.3)
	slli	a5,a5,1
	add	a5,a4,a5
	sh	zero,0(a5)
.L24:
	.loc 1 299 40
	lbu	a3,15(sp)
	.loc 1 299 43
	lui	a5,%hi(esc_ctrl)
	addi	a4,a5,%lo(esc_ctrl)
	li	a5,52
	mul	a5,a3,a5
	add	a5,a4,a5
	sw	zero,24(a5)
	.loc 1 300 40
	lbu	a3,15(sp)
	.loc 1 300 43
	lui	a5,%hi(esc_ctrl)
	addi	a4,a5,%lo(esc_ctrl)
	li	a5,52
	mul	a5,a3,a5
	add	a5,a4,a5
	sw	zero,28(a5)
	.loc 1 301 17
	j	.L22
.L19:
	.loc 1 303 40
	lbu	a3,15(sp)
	.loc 1 303 43
	lui	a5,%hi(esc_ctrl)
	addi	a4,a5,%lo(esc_ctrl)
	li	a5,52
	mul	a5,a3,a5
	add	a5,a4,a5
	sw	zero,24(a5)
	.loc 1 304 40
	lbu	a3,15(sp)
	.loc 1 304 43
	lui	a5,%hi(esc_ctrl)
	addi	a4,a5,%lo(esc_ctrl)
	li	a5,52
	mul	a5,a3,a5
	add	a5,a4,a5
	sw	zero,28(a5)
	.loc 1 305 32
	lbu	a3,15(sp)
	lui	a5,%hi(esc_ctrl)
	addi	a4,a5,%lo(esc_ctrl)
	li	a5,52
	mul	a5,a3,a5
	add	a5,a4,a5
	lbu	a5,10(a5)
	.loc 1 305 20
	beq	a5,zero,.L25
	.loc 1 305 66 discriminator 1
	lbu	a3,15(sp)
	.loc 1 305 77 discriminator 1
	lui	a5,%hi(esc_ctrl)
	addi	a4,a5,%lo(esc_ctrl)
	li	a5,52
	mul	a5,a3,a5
	add	a5,a4,a5
	li	a4,3
	sb	a4,8(a5)
	.loc 1 307 17
	j	.L46
.L25:
	.loc 1 306 36
	lbu	a3,15(sp)
	lui	a5,%hi(esc_ctrl)
	addi	a4,a5,%lo(esc_ctrl)
	li	a5,52
	mul	a5,a3,a5
	add	a5,a4,a5
	lbu	a5,11(a5)
	.loc 1 306 24
	beq	a5,zero,.L46
	.loc 1 306 72 discriminator 1
	lbu	a3,15(sp)
	.loc 1 306 83 discriminator 1
	lui	a5,%hi(esc_ctrl)
	addi	a4,a5,%lo(esc_ctrl)
	li	a5,52
	mul	a5,a3,a5
	add	a5,a4,a5
	li	a4,4
	sb	a4,8(a5)
	.loc 1 307 17
	j	.L46
.L18:
	.loc 1 309 28
	lbu	a3,15(sp)
	.loc 1 309 45
	lui	a5,%hi(esc_ctrl)
	addi	a4,a5,%lo(esc_ctrl)
	li	a5,52
	mul	a5,a3,a5
	add	a5,a4,a5
	sh	zero,16(a5)
	.loc 1 310 42
	lbu	a3,15(sp)
	.loc 1 310 47
	lui	a5,%hi(esc_ctrl)
	addi	a4,a5,%lo(esc_ctrl)
	li	a5,52
	mul	a5,a3,a5
	add	a5,a4,a5
	sh	zero,18(a5)
	.loc 1 311 42
	lbu	a3,15(sp)
	.loc 1 311 47
	lui	a5,%hi(esc_ctrl)
	addi	a4,a5,%lo(esc_ctrl)
	li	a5,52
	mul	a5,a3,a5
	add	a5,a4,a5
	li	a4,16384
	sh	a4,20(a5)
	.loc 1 312 32
	lbu	a5,15(sp)
	lui	a4,%hi(alignment_count.2)
	addi	a3,a4,%lo(alignment_count.2)
	slli	a4,a5,1
	add	a4,a3,a4
	lhu	a4,0(a4)
	.loc 1 312 36
	addi	a4,a4,1
	slli	a4,a4,16
	srli	a4,a4,16
	lui	a3,%hi(alignment_count.2)
	addi	a3,a3,%lo(alignment_count.2)
	slli	a5,a5,1
	add	a5,a3,a5
	sh	a4,0(a5)
	.loc 1 313 36
	lbu	a5,15(sp)
	lui	a4,%hi(alignment_count.2)
	addi	a4,a4,%lo(alignment_count.2)
	slli	a5,a5,1
	add	a5,a4,a5
	lhu	a4,0(a5)
	.loc 1 313 20
	li	a5,12288
	addi	a5,a5,-768
	bgtu	a4,a5,.L27
	.loc 1 315 48
	lbu	a3,15(sp)
	.loc 1 315 51
	lui	a5,%hi(esc_ctrl)
	addi	a4,a5,%lo(esc_ctrl)
	li	a5,52
	mul	a5,a3,a5
	add	a5,a4,a5
	sw	zero,24(a5)
	.loc 1 316 64
	lbu	a3,15(sp)
	lui	a5,%hi(esc_ctrl)
	addi	a4,a5,%lo(esc_ctrl)
	li	a5,52
	mul	a5,a3,a5
	add	a5,a4,a5
	lhu	a5,4(a5)
	.loc 1 316 48
	lbu	a3,15(sp)
	.loc 1 316 64
	mv	a2,a5
	.loc 1 316 51
	lui	a5,%hi(esc_ctrl)
	addi	a4,a5,%lo(esc_ctrl)
	li	a5,52
	mul	a5,a3,a5
	add	a5,a4,a5
	sw	a2,28(a5)
	.loc 1 348 17
	j	.L47
.L27:
	.loc 1 318 41
	lbu	a5,15(sp)
	lui	a4,%hi(alignment_count.2)
	addi	a4,a4,%lo(alignment_count.2)
	slli	a5,a5,1
	add	a5,a4,a5
	lhu	a4,0(a5)
	.loc 1 318 25
	li	a5,20480
	addi	a5,a5,-1280
	bgtu	a4,a5,.L29
	.loc 1 320 52
	lbu	a3,15(sp)
	lui	a5,%hi(esc_ctrl)
	addi	a4,a5,%lo(esc_ctrl)
	li	a5,52
	mul	a5,a3,a5
	add	a5,a4,a5
	lw	a4,24(a5)
	.loc 1 320 68
	lbu	a2,15(sp)
	lui	a5,%hi(esc_ctrl)
	addi	a3,a5,%lo(esc_ctrl)
	li	a5,52
	mul	a5,a2,a5
	add	a5,a3,a5
	lhu	a5,4(a5)
	.loc 1 320 28
	bge	a4,a5,.L30
	.loc 1 322 56
	lbu	a3,15(sp)
	lui	a5,%hi(esc_ctrl)
	addi	a4,a5,%lo(esc_ctrl)
	li	a5,52
	mul	a5,a3,a5
	add	a5,a4,a5
	lw	a5,24(a5)
	lbu	a2,15(sp)
	.loc 1 322 59
	addi	a4,a5,100
	lui	a5,%hi(esc_ctrl)
	addi	a3,a5,%lo(esc_ctrl)
	li	a5,52
	mul	a5,a2,a5
	add	a5,a3,a5
	sw	a4,24(a5)
.L30:
	.loc 1 324 48
	lbu	a3,15(sp)
	.loc 1 324 51
	lui	a5,%hi(esc_ctrl)
	addi	a4,a5,%lo(esc_ctrl)
	li	a5,52
	mul	a5,a3,a5
	add	a5,a4,a5
	sw	zero,28(a5)
	.loc 1 348 17
	j	.L47
.L29:
	.loc 1 326 41
	lbu	a5,15(sp)
	lui	a4,%hi(alignment_count.2)
	addi	a4,a4,%lo(alignment_count.2)
	slli	a5,a5,1
	add	a5,a4,a5
	lhu	a4,0(a5)
	.loc 1 326 25
	li	a5,24576
	addi	a5,a5,-256
	bgtu	a4,a5,.L31
	.loc 1 328 48
	lbu	a3,15(sp)
	.loc 1 328 51
	lui	a5,%hi(esc_ctrl)
	addi	a4,a5,%lo(esc_ctrl)
	li	a5,52
	mul	a5,a3,a5
	add	a5,a4,a5
	sw	zero,28(a5)
	.loc 1 329 43
	lbu	a5,15(sp)
	lui	a4,%hi(el_angle_sum_count.1)
	addi	a3,a4,%lo(el_angle_sum_count.1)
	slli	a4,a5,1
	add	a4,a3,a4
	lhu	a4,0(a4)
	.loc 1 329 47
	addi	a4,a4,1
	slli	a4,a4,16
	srli	a4,a4,16
	lui	a3,%hi(el_angle_sum_count.1)
	addi	a3,a3,%lo(el_angle_sum_count.1)
	slli	a5,a5,1
	add	a5,a3,a5
	sh	a4,0(a5)
	.loc 1 330 47
	lbu	a5,15(sp)
	lui	a4,%hi(el_angle_sum_count.1)
	addi	a4,a4,%lo(el_angle_sum_count.1)
	slli	a5,a5,1
	add	a5,a4,a5
	lhu	a4,0(a5)
	.loc 1 330 28
	li	a5,40
	bne	a4,a5,.L47
	.loc 1 332 55
	lbu	a5,15(sp)
	lui	a4,%hi(alignment_el_angle_sum.0)
	addi	a4,a4,%lo(alignment_el_angle_sum.0)
	slli	a5,a5,2
	add	a5,a4,a5
	lw	a4,0(a5)
	.loc 1 332 74
	lbu	a2,15(sp)
	lui	a5,%hi(esc_ctrl)
	addi	a3,a5,%lo(esc_ctrl)
	li	a5,52
	mul	a5,a2,a5
	add	a5,a3,a5
	lw	a5,12(a5)
	.loc 1 332 62
	lh	a5,0(a5)
	mv	a3,a5
	.loc 1 332 55
	lbu	a5,15(sp)
	.loc 1 332 59
	add	a4,a4,a3
	lui	a3,%hi(alignment_el_angle_sum.0)
	addi	a3,a3,%lo(alignment_el_angle_sum.0)
	slli	a5,a5,2
	add	a5,a3,a5
	sw	a4,0(a5)
	.loc 1 333 51
	lbu	a5,15(sp)
	.loc 1 333 55
	lui	a4,%hi(el_angle_sum_count.1)
	addi	a4,a4,%lo(el_angle_sum_count.1)
	slli	a5,a5,1
	add	a5,a4,a5
	sh	zero,0(a5)
	.loc 1 348 17
	j	.L47
.L31:
	.loc 1 336 41
	lbu	a5,15(sp)
	lui	a4,%hi(alignment_count.2)
	addi	a4,a4,%lo(alignment_count.2)
	slli	a5,a5,1
	add	a5,a4,a5
	lhu	a4,0(a5)
	.loc 1 336 25
	li	a5,24576
	addi	a5,a5,-256
	bleu	a4,a5,.L47
	.loc 1 338 40
	lbu	a5,15(sp)
	.loc 1 338 44
	lui	a4,%hi(alignment_count.2)
	addi	a4,a4,%lo(alignment_count.2)
	slli	a5,a5,1
	add	a5,a4,a5
	sh	zero,0(a5)
	.loc 1 339 48
	lbu	a3,15(sp)
	.loc 1 339 51
	lui	a5,%hi(esc_ctrl)
	addi	a4,a5,%lo(esc_ctrl)
	li	a5,52
	mul	a5,a3,a5
	add	a5,a4,a5
	sw	zero,24(a5)
	.loc 1 340 48
	lbu	a3,15(sp)
	.loc 1 340 51
	lui	a5,%hi(esc_ctrl)
	addi	a4,a5,%lo(esc_ctrl)
	li	a5,52
	mul	a5,a3,a5
	add	a5,a4,a5
	sw	zero,28(a5)
	.loc 1 341 77
	lbu	a5,15(sp)
	lui	a4,%hi(alignment_el_angle_sum.0)
	addi	a4,a4,%lo(alignment_el_angle_sum.0)
	slli	a5,a5,2
	add	a5,a4,a5
	lw	a5,0(a5)
	.loc 1 341 81
	srai	a5,a5,7
	.loc 1 341 36
	lbu	a2,15(sp)
	.loc 1 341 53
	slli	a4,a5,16
	srai	a4,a4,16
	lui	a5,%hi(esc_ctrl)
	addi	a3,a5,%lo(esc_ctrl)
	li	a5,52
	mul	a5,a2,a5
	add	a5,a3,a5
	sh	a4,16(a5)
	.loc 1 342 47
	lbu	a5,15(sp)
	.loc 1 342 51
	lui	a4,%hi(alignment_el_angle_sum.0)
	addi	a4,a4,%lo(alignment_el_angle_sum.0)
	slli	a5,a5,2
	add	a5,a4,a5
	sw	zero,0(a5)
	.loc 1 343 43
	lbu	a5,15(sp)
	.loc 1 343 47
	lui	a4,%hi(el_angle_sum_count.1)
	addi	a4,a4,%lo(el_angle_sum_count.1)
	slli	a5,a5,1
	add	a5,a4,a5
	sh	zero,0(a5)
	.loc 1 344 36
	lbu	a3,15(sp)
	.loc 1 344 47
	lui	a5,%hi(esc_ctrl)
	addi	a4,a5,%lo(esc_ctrl)
	li	a5,52
	mul	a5,a3,a5
	add	a5,a4,a5
	sb	zero,8(a5)
	.loc 1 345 36
	lbu	a3,15(sp)
	.loc 1 345 58
	lui	a5,%hi(esc_ctrl)
	addi	a4,a5,%lo(esc_ctrl)
	li	a5,52
	mul	a5,a3,a5
	add	a5,a4,a5
	sb	zero,10(a5)
	.loc 1 346 36
	lbu	a3,15(sp)
	.loc 1 346 60
	lui	a5,%hi(esc_ctrl)
	addi	a4,a5,%lo(esc_ctrl)
	li	a5,52
	mul	a5,a3,a5
	add	a5,a4,a5
	li	a4,1
	sb	a4,11(a5)
	.loc 1 348 17
	j	.L47
.L17:
	.loc 1 350 32
	lbu	a3,15(sp)
	lui	a5,%hi(esc_ctrl)
	addi	a4,a5,%lo(esc_ctrl)
	li	a5,52
	mul	a5,a3,a5
	add	a5,a4,a5
	lbu	a5,10(a5)
	.loc 1 350 20
	beq	a5,zero,.L32
	.loc 1 350 66 discriminator 1
	lbu	a3,15(sp)
	.loc 1 350 77 discriminator 1
	lui	a5,%hi(esc_ctrl)
	addi	a4,a5,%lo(esc_ctrl)
	li	a5,52
	mul	a5,a3,a5
	add	a5,a4,a5
	li	a4,3
	sb	a4,8(a5)
.L32:
	.loc 1 351 36
	lui	a5,%hi(mytest_d_state)
	lbu	a4,%lo(mytest_d_state)(a5)
	.loc 1 351 20
	li	a5,1
	bne	a4,a5,.L33
	.loc 1 353 51
	lui	a5,%hi(mytest_d_ref)
	lh	a5,%lo(mytest_d_ref)(a5)
	.loc 1 353 48
	lbu	a3,15(sp)
	.loc 1 353 51
	mv	a2,a5
	lui	a5,%hi(esc_ctrl)
	addi	a4,a5,%lo(esc_ctrl)
	li	a5,52
	mul	a5,a3,a5
	add	a5,a4,a5
	sw	a2,24(a5)
	j	.L34
.L33:
	.loc 1 357 48
	lbu	a3,15(sp)
	.loc 1 357 51
	lui	a5,%hi(esc_ctrl)
	addi	a4,a5,%lo(esc_ctrl)
	li	a5,52
	mul	a5,a3,a5
	add	a5,a4,a5
	sw	zero,24(a5)
.L34:
	.loc 1 359 56
	lbu	a3,15(sp)
	.loc 1 359 40
	lbu	a2,15(sp)
	.loc 1 359 56
	lui	a5,%hi(esc_ctrl)
	addi	a4,a5,%lo(esc_ctrl)
	li	a5,52
	mul	a5,a3,a5
	add	a5,a4,a5
	lw	a4,0(a5)
	.loc 1 359 43
	lui	a5,%hi(esc_ctrl)
	addi	a3,a5,%lo(esc_ctrl)
	li	a5,52
	mul	a5,a2,a5
	add	a5,a3,a5
	sw	a4,28(a5)
	.loc 1 361 44
	lbu	a3,15(sp)
	lui	a5,%hi(esc_ctrl)
	addi	a4,a5,%lo(esc_ctrl)
	li	a5,52
	mul	a5,a3,a5
	add	a5,a4,a5
	lw	a4,28(a5)
	.loc 1 361 77
	lbu	a2,15(sp)
	lui	a5,%hi(esc_ctrl)
	addi	a3,a5,%lo(esc_ctrl)
	li	a5,52
	mul	a5,a2,a5
	add	a5,a3,a5
	lw	a5,36(a5)
	.loc 1 361 47
	sub	a4,a4,a5
	.loc 1 361 20
	li	a5,700
	ble	a4,a5,.L35
	.loc 1 363 81
	lbu	a3,15(sp)
	lui	a5,%hi(esc_ctrl)
	addi	a4,a5,%lo(esc_ctrl)
	li	a5,52
	mul	a5,a3,a5
	add	a5,a4,a5
	lw	a5,36(a5)
	.loc 1 363 48
	lbu	a2,15(sp)
	.loc 1 363 84
	addi	a4,a5,700
	.loc 1 363 51
	lui	a5,%hi(esc_ctrl)
	addi	a3,a5,%lo(esc_ctrl)
	li	a5,52
	mul	a5,a2,a5
	add	a5,a3,a5
	sw	a4,28(a5)
	j	.L36
.L35:
	.loc 1 365 49
	lbu	a3,15(sp)
	lui	a5,%hi(esc_ctrl)
	addi	a4,a5,%lo(esc_ctrl)
	li	a5,52
	mul	a5,a3,a5
	add	a5,a4,a5
	lw	a4,28(a5)
	.loc 1 365 82
	lbu	a2,15(sp)
	lui	a5,%hi(esc_ctrl)
	addi	a3,a5,%lo(esc_ctrl)
	li	a5,52
	mul	a5,a2,a5
	add	a5,a3,a5
	lw	a5,36(a5)
	.loc 1 365 52
	sub	a4,a4,a5
	.loc 1 365 25
	li	a5,-700
	bge	a4,a5,.L36
	.loc 1 367 81
	lbu	a3,15(sp)
	lui	a5,%hi(esc_ctrl)
	addi	a4,a5,%lo(esc_ctrl)
	li	a5,52
	mul	a5,a3,a5
	add	a5,a4,a5
	lw	a5,36(a5)
	.loc 1 367 48
	lbu	a2,15(sp)
	.loc 1 367 84
	addi	a4,a5,-700
	.loc 1 367 51
	lui	a5,%hi(esc_ctrl)
	addi	a3,a5,%lo(esc_ctrl)
	li	a5,52
	mul	a5,a2,a5
	add	a5,a3,a5
	sw	a4,28(a5)
.L36:
	.loc 1 369 73
	lbu	a3,15(sp)
	.loc 1 369 45
	lbu	a2,15(sp)
	.loc 1 369 73
	lui	a5,%hi(esc_ctrl)
	addi	a4,a5,%lo(esc_ctrl)
	li	a5,52
	mul	a5,a3,a5
	add	a5,a4,a5
	lw	a4,28(a5)
	.loc 1 369 48
	lui	a5,%hi(esc_ctrl)
	addi	a3,a5,%lo(esc_ctrl)
	li	a5,52
	mul	a5,a2,a5
	add	a5,a3,a5
	sw	a4,36(a5)
	.loc 1 371 44
	lbu	a3,15(sp)
	lui	a5,%hi(esc_ctrl)
	addi	a4,a5,%lo(esc_ctrl)
	li	a5,52
	mul	a5,a3,a5
	add	a5,a4,a5
	lw	a4,24(a5)
	.loc 1 371 77
	lbu	a2,15(sp)
	lui	a5,%hi(esc_ctrl)
	addi	a3,a5,%lo(esc_ctrl)
	li	a5,52
	mul	a5,a2,a5
	add	a5,a3,a5
	lw	a5,32(a5)
	.loc 1 371 47
	sub	a4,a4,a5
	.loc 1 371 20
	li	a5,700
	ble	a4,a5,.L37
	.loc 1 373 81
	lbu	a3,15(sp)
	lui	a5,%hi(esc_ctrl)
	addi	a4,a5,%lo(esc_ctrl)
	li	a5,52
	mul	a5,a3,a5
	add	a5,a4,a5
	lw	a5,32(a5)
	.loc 1 373 48
	lbu	a2,15(sp)
	.loc 1 373 84
	addi	a4,a5,700
	.loc 1 373 51
	lui	a5,%hi(esc_ctrl)
	addi	a3,a5,%lo(esc_ctrl)
	li	a5,52
	mul	a5,a2,a5
	add	a5,a3,a5
	sw	a4,24(a5)
	j	.L38
.L37:
	.loc 1 375 49
	lbu	a3,15(sp)
	lui	a5,%hi(esc_ctrl)
	addi	a4,a5,%lo(esc_ctrl)
	li	a5,52
	mul	a5,a3,a5
	add	a5,a4,a5
	lw	a4,24(a5)
	.loc 1 375 82
	lbu	a2,15(sp)
	lui	a5,%hi(esc_ctrl)
	addi	a3,a5,%lo(esc_ctrl)
	li	a5,52
	mul	a5,a2,a5
	add	a5,a3,a5
	lw	a5,32(a5)
	.loc 1 375 52
	sub	a4,a4,a5
	.loc 1 375 25
	li	a5,-700
	bge	a4,a5,.L38
	.loc 1 377 81
	lbu	a3,15(sp)
	lui	a5,%hi(esc_ctrl)
	addi	a4,a5,%lo(esc_ctrl)
	li	a5,52
	mul	a5,a3,a5
	add	a5,a4,a5
	lw	a5,32(a5)
	.loc 1 377 48
	lbu	a2,15(sp)
	.loc 1 377 84
	addi	a4,a5,-700
	.loc 1 377 51
	lui	a5,%hi(esc_ctrl)
	addi	a3,a5,%lo(esc_ctrl)
	li	a5,52
	mul	a5,a2,a5
	add	a5,a3,a5
	sw	a4,24(a5)
.L38:
	.loc 1 379 73
	lbu	a3,15(sp)
	.loc 1 379 45
	lbu	a2,15(sp)
	.loc 1 379 73
	lui	a5,%hi(esc_ctrl)
	addi	a4,a5,%lo(esc_ctrl)
	li	a5,52
	mul	a5,a3,a5
	add	a5,a4,a5
	lw	a4,24(a5)
	.loc 1 379 48
	lui	a5,%hi(esc_ctrl)
	addi	a3,a5,%lo(esc_ctrl)
	li	a5,52
	mul	a5,a2,a5
	add	a5,a3,a5
	sw	a4,32(a5)
	.loc 1 381 17
	j	.L22
.L14:
	.loc 1 386 40
	lbu	a3,15(sp)
	.loc 1 386 43
	lui	a5,%hi(esc_ctrl)
	addi	a4,a5,%lo(esc_ctrl)
	li	a5,52
	mul	a5,a3,a5
	add	a5,a4,a5
	sw	zero,24(a5)
	.loc 1 387 40
	lbu	a3,15(sp)
	.loc 1 387 43
	lui	a5,%hi(esc_ctrl)
	addi	a4,a5,%lo(esc_ctrl)
	li	a5,52
	mul	a5,a3,a5
	add	a5,a4,a5
	sw	zero,28(a5)
	.loc 1 388 17
	j	.L22
.L45:
	.loc 1 383 17
	nop
	j	.L22
.L46:
	.loc 1 307 17
	nop
	j	.L22
.L47:
	.loc 1 348 17
	nop
.L22:
	.loc 1 391 24
	lbu	a3,15(sp)
	lui	a5,%hi(esc_ctrl)
	addi	a4,a5,%lo(esc_ctrl)
	li	a5,52
	mul	a5,a3,a5
	add	a5,a4,a5
	lbu	a4,8(a5)
	.loc 1 391 12
	li	a5,4
	beq	a4,a5,.L39
	.loc 1 393 41
	lbu	a3,15(sp)
	.loc 1 393 44
	lui	a5,%hi(esc_ctrl)
	addi	a4,a5,%lo(esc_ctrl)
	li	a5,52
	mul	a5,a3,a5
	add	a5,a4,a5
	sw	zero,32(a5)
	.loc 1 394 41
	lbu	a3,15(sp)
	.loc 1 394 44
	lui	a5,%hi(esc_ctrl)
	addi	a4,a5,%lo(esc_ctrl)
	li	a5,52
	mul	a5,a3,a5
	add	a5,a4,a5
	sw	zero,36(a5)
.L39:
	.loc 1 397 36
	lbu	a3,15(sp)
	lui	a5,%hi(esc_ctrl)
	addi	a4,a5,%lo(esc_ctrl)
	li	a5,52
	mul	a5,a3,a5
	add	a5,a4,a5
	lw	a4,24(a5)
	.loc 1 397 12
	li	a5,20480
	addi	a5,a5,-480
	ble	a4,a5,.L40
	.loc 1 397 80 discriminator 1
	lbu	a3,15(sp)
	.loc 1 397 83 discriminator 1
	lui	a5,%hi(esc_ctrl)
	addi	a4,a5,%lo(esc_ctrl)
	li	a5,52
	mul	a5,a3,a5
	add	a5,a4,a5
	li	a4,20480
	addi	a4,a4,-480
	sw	a4,24(a5)
	j	.L41
.L40:
	.loc 1 398 41
	lbu	a3,15(sp)
	lui	a5,%hi(esc_ctrl)
	addi	a4,a5,%lo(esc_ctrl)
	li	a5,52
	mul	a5,a3,a5
	add	a5,a4,a5
	lw	a4,24(a5)
	.loc 1 398 17
	li	a5,-20480
	addi	a5,a5,480
	bge	a4,a5,.L41
	.loc 1 398 86 discriminator 1
	lbu	a3,15(sp)
	.loc 1 398 89 discriminator 1
	lui	a5,%hi(esc_ctrl)
	addi	a4,a5,%lo(esc_ctrl)
	li	a5,52
	mul	a5,a3,a5
	add	a5,a4,a5
	li	a4,-20480
	addi	a4,a4,480
	sw	a4,24(a5)
.L41:
	.loc 1 399 36
	lbu	a3,15(sp)
	lui	a5,%hi(esc_ctrl)
	addi	a4,a5,%lo(esc_ctrl)
	li	a5,52
	mul	a5,a3,a5
	add	a5,a4,a5
	lw	a4,28(a5)
	.loc 1 399 12
	li	a5,20480
	addi	a5,a5,-480
	ble	a4,a5,.L42
	.loc 1 399 80 discriminator 1
	lbu	a3,15(sp)
	.loc 1 399 83 discriminator 1
	lui	a5,%hi(esc_ctrl)
	addi	a4,a5,%lo(esc_ctrl)
	li	a5,52
	mul	a5,a3,a5
	add	a5,a4,a5
	li	a4,20480
	addi	a4,a4,-480
	sw	a4,28(a5)
	j	.L43
.L42:
	.loc 1 400 41
	lbu	a3,15(sp)
	lui	a5,%hi(esc_ctrl)
	addi	a4,a5,%lo(esc_ctrl)
	li	a5,52
	mul	a5,a3,a5
	add	a5,a4,a5
	lw	a4,28(a5)
	.loc 1 400 17
	li	a5,-20480
	addi	a5,a5,480
	bge	a4,a5,.L43
	.loc 1 400 86 discriminator 1
	lbu	a3,15(sp)
	.loc 1 400 89 discriminator 1
	lui	a5,%hi(esc_ctrl)
	addi	a4,a5,%lo(esc_ctrl)
	li	a5,52
	mul	a5,a3,a5
	add	a5,a4,a5
	li	a4,-20480
	addi	a4,a4,480
	sw	a4,28(a5)
.L43:
	.loc 1 402 9
	lbu	a2,15(sp)
	lbu	a3,15(sp)
	.loc 1 402 95
	lbu	a4,15(sp)
	.loc 1 402 9
	li	a5,52
	mul	a5,a4,a5
	addi	a4,a5,32
	lui	a5,%hi(esc_ctrl)
	addi	a5,a5,%lo(esc_ctrl)
	add	a5,a4,a5
	addi	a1,a5,8
	lui	a5,%hi(esc_ctrl)
	addi	a5,a5,%lo(esc_ctrl)
	li	a4,52
	mul	a4,a3,a4
	add	a4,a5,a4
	lui	a5,%hi(esc_ctrl)
	addi	a3,a5,%lo(esc_ctrl)
	li	a5,52
	mul	a5,a2,a5
	add	a5,a3,a5
	lhu	a3,18(a4)
	lhu	a4,20(a4)
	slli	a4,a4,16
	or	a4,a4,a3
	mv	a2,a4
	mv	a3,a1
	lw	a0,24(a5)
	lw	a1,28(a5)
	call	remo_mc_math_rev_park
	.loc 1 403 9
	lbu	a5,15(sp)
	mv	a0,a5
	call	remo_mc_math_calc_duty_cycles
	.loc 1 241 50 discriminator 2
	lbu	a5,15(sp)
	addi	a5,a5,1
	sb	a5,15(sp)
.L9:
	.loc 1 241 27 discriminator 1
	lbu	a4,15(sp)
	li	a5,2
	bleu	a4,a5,.L44
.LBE3:
	.loc 1 407 1
	nop
	nop
	lw	ra,28(sp)
	.cfi_restore 1
	addi	sp,sp,32
	.cfi_def_cfa_offset 0
	jr	ra
	.cfi_endproc
.LFE528:
	.size	remo_esc_ctrl_update, .-remo_esc_ctrl_update
	.section	.text.remo_mc_math_rev_park,"ax",@progbits
	.align	1
	.type	remo_mc_math_rev_park, @function
remo_mc_math_rev_park:
.LFB529:
	.loc 1 418 1
	.cfi_startproc
	addi	sp,sp,-32
	.cfi_def_cfa_offset 32
	sw	a0,8(sp)
	sw	a1,12(sp)
	sw	a2,4(sp)
	sw	a3,0(sp)
	.loc 1 421 8
	lw	a5,0(sp)
	beq	a5,zero,.L51
	.loc 1 427 23
	lw	a5,8(sp)
	.loc 1 427 45
	lh	a4,6(sp)
	.loc 1 427 12
	mul	a5,a5,a4
	sw	a5,28(sp)
	.loc 1 428 12
	lw	a5,28(sp)
	srai	a5,a5,14
	sw	a5,28(sp)
	.loc 1 430 23
	lw	a5,12(sp)
	.loc 1 430 45
	lh	a4,4(sp)
	.loc 1 430 12
	mul	a5,a5,a4
	sw	a5,24(sp)
	.loc 1 431 12
	lw	a5,24(sp)
	srai	a5,a5,14
	sw	a5,24(sp)
	.loc 1 433 39
	lw	a4,28(sp)
	lw	a5,24(sp)
	sub	a4,a4,a5
	.loc 1 433 30
	lw	a5,0(sp)
	sw	a4,0(a5)
	.loc 1 435 23
	lw	a5,8(sp)
	.loc 1 435 45
	lh	a4,4(sp)
	.loc 1 435 12
	mul	a5,a5,a4
	sw	a5,28(sp)
	.loc 1 436 12
	lw	a5,28(sp)
	srai	a5,a5,14
	sw	a5,28(sp)
	.loc 1 438 23
	lw	a5,12(sp)
	.loc 1 438 45
	lh	a4,6(sp)
	.loc 1 438 12
	mul	a5,a5,a4
	sw	a5,24(sp)
	.loc 1 439 12
	lw	a5,24(sp)
	srai	a5,a5,14
	sw	a5,24(sp)
	.loc 1 441 38
	lw	a4,28(sp)
	lw	a5,24(sp)
	add	a4,a4,a5
	.loc 1 441 29
	lw	a5,0(sp)
	sw	a4,4(a5)
	j	.L48
.L51:
	.loc 1 423 9
	nop
.L48:
	.loc 1 442 1
	addi	sp,sp,32
	.cfi_def_cfa_offset 0
	jr	ra
	.cfi_endproc
.LFE529:
	.size	remo_mc_math_rev_park, .-remo_mc_math_rev_park
	.section	.text.remo_mc_math_calc_duty_cycles,"ax",@progbits
	.align	1
	.type	remo_mc_math_calc_duty_cycles, @function
remo_mc_math_calc_duty_cycles:
.LFB530:
	.loc 1 457 1
	.cfi_startproc
	addi	sp,sp,-48
	.cfi_def_cfa_offset 48
	mv	a5,a0
	sb	a5,15(sp)
	.loc 1 458 13
	sw	zero,28(sp)
	.loc 1 458 21
	sw	zero,44(sp)
	.loc 1 458 29
	sw	zero,40(sp)
	.loc 1 458 37
	sw	zero,24(sp)
	.loc 1 458 46
	sw	zero,20(sp)
	.loc 1 458 57
	sw	zero,16(sp)
	.loc 1 459 14
	sh	zero,38(sp)
	.loc 1 459 31
	sh	zero,36(sp)
	.loc 1 459 48
	sh	zero,34(sp)
	.loc 1 461 48
	lbu	a3,15(sp)
	lui	a5,%hi(esc_ctrl)
	addi	a4,a5,%lo(esc_ctrl)
	li	a5,52
	mul	a5,a3,a5
	add	a5,a4,a5
	lw	a5,40(a5)
	mv	a4,a5
	.loc 1 461 55
	lui	a5,%hi(T_SQRT3)
	lw	a5,%lo(T_SQRT3)(a5)
	mul	a5,a4,a5
	.loc 1 461 11
	sw	a5,20(sp)
	.loc 1 462 47
	lbu	a3,15(sp)
	lui	a5,%hi(esc_ctrl)
	addi	a4,a5,%lo(esc_ctrl)
	li	a5,52
	mul	a5,a3,a5
	add	a5,a4,a5
	lw	a5,44(a5)
	mv	a4,a5
	.loc 1 462 53
	lui	a5,%hi(T_PWM)
	lw	a5,%lo(T_PWM)(a5)
	mul	a5,a4,a5
	.loc 1 462 10
	sw	a5,16(sp)
	.loc 1 464 8
	lw	a4,16(sp)
	lw	a5,20(sp)
	ble	a4,a5,.L53
	.loc 1 466 12
	lw	a5,16(sp)
	bge	a5,zero,.L54
	.loc 1 468 24
	lw	a4,16(sp)
	lw	a5,20(sp)
	sub	a5,a4,a5
	.loc 1 468 16
	srai	a5,a5,1
	sw	a5,44(sp)
	.loc 1 469 16
	lw	a5,16(sp)
	neg	a5,a5
	sw	a5,40(sp)
	.loc 1 470 17
	lw	a4,44(sp)
	lw	a5,40(sp)
	add	a5,a4,a5
	sw	a5,24(sp)
	.loc 1 471 21
	lw	a4,24(sp)
	lui	a5,%hi(T_MAX)
	lw	a5,%lo(T_MAX)(a5)
	.loc 1 471 16
	bleu	a4,a5,.L55
	.loc 1 473 25
	lw	a4,44(sp)
	lui	a5,%hi(T_MAX)
	lw	a5,%lo(T_MAX)(a5)
	mul	a4,a4,a5
	.loc 1 473 33
	lw	a5,24(sp)
	divu	a5,a4,a5
	.loc 1 473 20
	sw	a5,44(sp)
	.loc 1 474 25
	lw	a4,40(sp)
	lui	a5,%hi(T_MAX)
	lw	a5,%lo(T_MAX)(a5)
	mul	a4,a4,a5
	.loc 1 474 33
	lw	a5,24(sp)
	divu	a5,a4,a5
	.loc 1 474 20
	sw	a5,40(sp)
.L55:
	.loc 1 476 24
	lui	a5,%hi(T_MAX)
	lw	a4,%lo(T_MAX)(a5)
	lw	a5,44(sp)
	sub	a4,a4,a5
	.loc 1 476 29
	lw	a5,40(sp)
	sub	a5,a4,a5
	.loc 1 476 16
	sw	a5,28(sp)
	.loc 1 478 30
	lw	a5,28(sp)
	srai	a5,a5,16
	.loc 1 478 25
	sh	a5,38(sp)
	.loc 1 479 45
	lw	a5,44(sp)
	srai	a5,a5,15
	.loc 1 479 39
	slli	a5,a5,16
	srli	a5,a5,16
	.loc 1 479 25
	lhu	a4,38(sp)
	add	a5,a5,a4
	sh	a5,36(sp)
	.loc 1 480 45
	lw	a5,40(sp)
	srai	a5,a5,15
	.loc 1 480 39
	slli	a5,a5,16
	srli	a5,a5,16
	.loc 1 480 25
	lhu	a4,36(sp)
	add	a5,a5,a4
	sh	a5,34(sp)
	j	.L56
.L54:
	.loc 1 482 24
	lw	a4,16(sp)
	lw	a5,20(sp)
	add	a5,a4,a5
	.loc 1 482 17
	bge	a5,zero,.L57
	.loc 1 484 16
	lw	a5,16(sp)
	sw	a5,44(sp)
	.loc 1 485 19
	lw	a5,16(sp)
	neg	a4,a5
	.loc 1 485 25
	lw	a5,20(sp)
	sub	a5,a4,a5
	.loc 1 485 16
	srai	a5,a5,1
	sw	a5,40(sp)
	.loc 1 486 17
	lw	a4,44(sp)
	lw	a5,40(sp)
	add	a5,a4,a5
	sw	a5,24(sp)
	.loc 1 487 21
	lw	a4,24(sp)
	lui	a5,%hi(T_MAX)
	lw	a5,%lo(T_MAX)(a5)
	.loc 1 487 16
	bleu	a4,a5,.L58
	.loc 1 489 25
	lw	a4,44(sp)
	lui	a5,%hi(T_MAX)
	lw	a5,%lo(T_MAX)(a5)
	mul	a4,a4,a5
	.loc 1 489 33
	lw	a5,24(sp)
	divu	a5,a4,a5
	.loc 1 489 20
	sw	a5,44(sp)
	.loc 1 490 25
	lw	a4,40(sp)
	lui	a5,%hi(T_MAX)
	lw	a5,%lo(T_MAX)(a5)
	mul	a4,a4,a5
	.loc 1 490 33
	lw	a5,24(sp)
	divu	a5,a4,a5
	.loc 1 490 20
	sw	a5,40(sp)
.L58:
	.loc 1 492 24
	lui	a5,%hi(T_MAX)
	lw	a4,%lo(T_MAX)(a5)
	lw	a5,44(sp)
	sub	a4,a4,a5
	.loc 1 492 29
	lw	a5,40(sp)
	sub	a5,a4,a5
	.loc 1 492 16
	sw	a5,28(sp)
	.loc 1 494 30
	lw	a5,28(sp)
	srai	a5,a5,16
	.loc 1 494 25
	sh	a5,38(sp)
	.loc 1 495 45
	lw	a5,40(sp)
	srai	a5,a5,15
	.loc 1 495 39
	slli	a5,a5,16
	srli	a5,a5,16
	.loc 1 495 25
	lhu	a4,38(sp)
	add	a5,a5,a4
	sh	a5,34(sp)
	.loc 1 496 45
	lw	a5,44(sp)
	srai	a5,a5,15
	.loc 1 496 39
	slli	a5,a5,16
	srli	a5,a5,16
	.loc 1 496 25
	lhu	a4,34(sp)
	add	a5,a5,a4
	sh	a5,36(sp)
	j	.L56
.L57:
	.loc 1 500 25
	lw	a4,20(sp)
	lw	a5,16(sp)
	add	a5,a4,a5
	.loc 1 500 16
	srai	a5,a5,1
	sw	a5,44(sp)
	.loc 1 501 24
	lw	a4,16(sp)
	lw	a5,20(sp)
	sub	a5,a4,a5
	.loc 1 501 16
	srai	a5,a5,1
	sw	a5,40(sp)
	.loc 1 502 17
	lw	a4,44(sp)
	lw	a5,40(sp)
	add	a5,a4,a5
	sw	a5,24(sp)
	.loc 1 503 21
	lw	a4,24(sp)
	lui	a5,%hi(T_MAX)
	lw	a5,%lo(T_MAX)(a5)
	.loc 1 503 16
	bleu	a4,a5,.L59
	.loc 1 505 25
	lw	a4,44(sp)
	lui	a5,%hi(T_MAX)
	lw	a5,%lo(T_MAX)(a5)
	mul	a4,a4,a5
	.loc 1 505 33
	lw	a5,24(sp)
	divu	a5,a4,a5
	.loc 1 505 20
	sw	a5,44(sp)
	.loc 1 506 25
	lw	a4,40(sp)
	lui	a5,%hi(T_MAX)
	lw	a5,%lo(T_MAX)(a5)
	mul	a4,a4,a5
	.loc 1 506 33
	lw	a5,24(sp)
	divu	a5,a4,a5
	.loc 1 506 20
	sw	a5,40(sp)
.L59:
	.loc 1 508 24
	lui	a5,%hi(T_MAX)
	lw	a4,%lo(T_MAX)(a5)
	lw	a5,44(sp)
	sub	a4,a4,a5
	.loc 1 508 29
	lw	a5,40(sp)
	sub	a5,a4,a5
	.loc 1 508 16
	sw	a5,28(sp)
	.loc 1 510 30
	lw	a5,28(sp)
	srai	a5,a5,16
	.loc 1 510 25
	sh	a5,34(sp)
	.loc 1 511 45
	lw	a5,44(sp)
	srai	a5,a5,15
	.loc 1 511 39
	slli	a5,a5,16
	srli	a5,a5,16
	.loc 1 511 25
	lhu	a4,34(sp)
	add	a5,a5,a4
	sh	a5,38(sp)
	.loc 1 512 45
	lw	a5,40(sp)
	srai	a5,a5,15
	.loc 1 512 39
	slli	a5,a5,16
	srli	a5,a5,16
	.loc 1 512 25
	lhu	a4,38(sp)
	add	a5,a5,a4
	sh	a5,36(sp)
	j	.L56
.L53:
	.loc 1 517 12
	lw	a5,16(sp)
	ble	a5,zero,.L60
	.loc 1 519 25
	lw	a4,20(sp)
	lw	a5,16(sp)
	sub	a5,a4,a5
	.loc 1 519 16
	srai	a5,a5,1
	sw	a5,44(sp)
	.loc 1 520 16
	lw	a5,16(sp)
	sw	a5,40(sp)
	.loc 1 521 17
	lw	a4,44(sp)
	lw	a5,40(sp)
	add	a5,a4,a5
	sw	a5,24(sp)
	.loc 1 522 21
	lw	a4,24(sp)
	lui	a5,%hi(T_MAX)
	lw	a5,%lo(T_MAX)(a5)
	.loc 1 522 16
	bleu	a4,a5,.L61
	.loc 1 524 25
	lw	a4,44(sp)
	lui	a5,%hi(T_MAX)
	lw	a5,%lo(T_MAX)(a5)
	mul	a4,a4,a5
	.loc 1 524 33
	lw	a5,24(sp)
	divu	a5,a4,a5
	.loc 1 524 20
	sw	a5,44(sp)
	.loc 1 525 25
	lw	a4,40(sp)
	lui	a5,%hi(T_MAX)
	lw	a5,%lo(T_MAX)(a5)
	mul	a4,a4,a5
	.loc 1 525 33
	lw	a5,24(sp)
	divu	a5,a4,a5
	.loc 1 525 20
	sw	a5,40(sp)
.L61:
	.loc 1 527 24
	lui	a5,%hi(T_MAX)
	lw	a4,%lo(T_MAX)(a5)
	lw	a5,44(sp)
	sub	a4,a4,a5
	.loc 1 527 29
	lw	a5,40(sp)
	sub	a5,a4,a5
	.loc 1 527 16
	sw	a5,28(sp)
	.loc 1 529 30
	lw	a5,28(sp)
	srai	a5,a5,16
	.loc 1 529 25
	sh	a5,34(sp)
	.loc 1 530 45
	lw	a5,40(sp)
	srai	a5,a5,15
	.loc 1 530 39
	slli	a5,a5,16
	srli	a5,a5,16
	.loc 1 530 25
	lhu	a4,34(sp)
	add	a5,a5,a4
	sh	a5,36(sp)
	.loc 1 531 45
	lw	a5,44(sp)
	srai	a5,a5,15
	.loc 1 531 39
	slli	a5,a5,16
	srli	a5,a5,16
	.loc 1 531 25
	lhu	a4,36(sp)
	add	a5,a5,a4
	sh	a5,38(sp)
	j	.L56
.L60:
	.loc 1 533 25
	lw	a4,20(sp)
	lw	a5,16(sp)
	add	a5,a4,a5
	.loc 1 533 17
	ble	a5,zero,.L62
	.loc 1 535 16
	lw	a5,16(sp)
	neg	a5,a5
	sw	a5,44(sp)
	.loc 1 536 25
	lw	a4,20(sp)
	lw	a5,16(sp)
	add	a5,a4,a5
	.loc 1 536 16
	srai	a5,a5,1
	sw	a5,40(sp)
	.loc 1 537 17
	lw	a4,44(sp)
	lw	a5,40(sp)
	add	a5,a4,a5
	sw	a5,24(sp)
	.loc 1 538 21
	lw	a4,24(sp)
	lui	a5,%hi(T_MAX)
	lw	a5,%lo(T_MAX)(a5)
	.loc 1 538 16
	bleu	a4,a5,.L63
	.loc 1 540 25
	lw	a4,44(sp)
	lui	a5,%hi(T_MAX)
	lw	a5,%lo(T_MAX)(a5)
	mul	a4,a4,a5
	.loc 1 540 33
	lw	a5,24(sp)
	divu	a5,a4,a5
	.loc 1 540 20
	sw	a5,44(sp)
	.loc 1 541 25
	lw	a4,40(sp)
	lui	a5,%hi(T_MAX)
	lw	a5,%lo(T_MAX)(a5)
	mul	a4,a4,a5
	.loc 1 541 33
	lw	a5,24(sp)
	divu	a5,a4,a5
	.loc 1 541 20
	sw	a5,40(sp)
.L63:
	.loc 1 543 24
	lui	a5,%hi(T_MAX)
	lw	a4,%lo(T_MAX)(a5)
	lw	a5,44(sp)
	sub	a4,a4,a5
	.loc 1 543 29
	lw	a5,40(sp)
	sub	a5,a4,a5
	.loc 1 543 16
	sw	a5,28(sp)
	.loc 1 545 30
	lw	a5,28(sp)
	srai	a5,a5,16
	.loc 1 545 25
	sh	a5,36(sp)
	.loc 1 546 45
	lw	a5,44(sp)
	srai	a5,a5,15
	.loc 1 546 39
	slli	a5,a5,16
	srli	a5,a5,16
	.loc 1 546 25
	lhu	a4,36(sp)
	add	a5,a5,a4
	sh	a5,34(sp)
	.loc 1 547 45
	lw	a5,40(sp)
	srai	a5,a5,15
	.loc 1 547 39
	slli	a5,a5,16
	srli	a5,a5,16
	.loc 1 547 25
	lhu	a4,34(sp)
	add	a5,a5,a4
	sh	a5,38(sp)
	j	.L56
.L62:
	.loc 1 551 19
	lw	a5,20(sp)
	neg	a4,a5
	.loc 1 551 26
	lw	a5,16(sp)
	sub	a5,a4,a5
	.loc 1 551 16
	srai	a5,a5,1
	sw	a5,44(sp)
	.loc 1 552 25
	lw	a4,20(sp)
	lw	a5,16(sp)
	sub	a5,a4,a5
	.loc 1 552 16
	srai	a5,a5,1
	sw	a5,40(sp)
	.loc 1 553 17
	lw	a4,44(sp)
	lw	a5,40(sp)
	add	a5,a4,a5
	sw	a5,24(sp)
	.loc 1 554 21
	lw	a4,24(sp)
	lui	a5,%hi(T_MAX)
	lw	a5,%lo(T_MAX)(a5)
	.loc 1 554 16
	bleu	a4,a5,.L64
	.loc 1 556 25
	lw	a4,44(sp)
	lui	a5,%hi(T_MAX)
	lw	a5,%lo(T_MAX)(a5)
	mul	a4,a4,a5
	.loc 1 556 33
	lw	a5,24(sp)
	divu	a5,a4,a5
	.loc 1 556 20
	sw	a5,44(sp)
	.loc 1 557 25
	lw	a4,40(sp)
	lui	a5,%hi(T_MAX)
	lw	a5,%lo(T_MAX)(a5)
	mul	a4,a4,a5
	.loc 1 557 33
	lw	a5,24(sp)
	divu	a5,a4,a5
	.loc 1 557 20
	sw	a5,40(sp)
.L64:
	.loc 1 559 24
	lui	a5,%hi(T_MAX)
	lw	a4,%lo(T_MAX)(a5)
	lw	a5,44(sp)
	sub	a4,a4,a5
	.loc 1 559 29
	lw	a5,40(sp)
	sub	a5,a4,a5
	.loc 1 559 16
	sw	a5,28(sp)
	.loc 1 561 30
	lw	a5,28(sp)
	srai	a5,a5,16
	.loc 1 561 25
	sh	a5,36(sp)
	.loc 1 562 45
	lw	a5,40(sp)
	srai	a5,a5,15
	.loc 1 562 39
	slli	a5,a5,16
	srli	a5,a5,16
	.loc 1 562 25
	lhu	a4,36(sp)
	add	a5,a5,a4
	sh	a5,38(sp)
	.loc 1 563 45
	lw	a5,44(sp)
	srai	a5,a5,15
	.loc 1 563 39
	slli	a5,a5,16
	srli	a5,a5,16
	.loc 1 563 25
	lhu	a4,38(sp)
	add	a5,a5,a4
	sh	a5,34(sp)
.L56:
	.loc 1 567 20
	lbu	a3,15(sp)
	lui	a5,%hi(esc_ctrl)
	addi	a4,a5,%lo(esc_ctrl)
	li	a5,52
	mul	a5,a3,a5
	add	a5,a4,a5
	lw	a5,48(a5)
	.loc 1 567 45
	lhu	a4,38(sp)
	sh	a4,0(a5)
	.loc 1 568 20
	lbu	a3,15(sp)
	lui	a5,%hi(esc_ctrl)
	addi	a4,a5,%lo(esc_ctrl)
	li	a5,52
	mul	a5,a3,a5
	add	a5,a4,a5
	lw	a5,48(a5)
	.loc 1 568 41
	addi	a5,a5,2
	.loc 1 568 45
	lhu	a4,36(sp)
	sh	a4,0(a5)
	.loc 1 569 20
	lbu	a3,15(sp)
	lui	a5,%hi(esc_ctrl)
	addi	a4,a5,%lo(esc_ctrl)
	li	a5,52
	mul	a5,a3,a5
	add	a5,a4,a5
	lw	a5,48(a5)
	.loc 1 569 41
	addi	a5,a5,4
	.loc 1 569 45
	lhu	a4,34(sp)
	sh	a4,0(a5)
	.loc 1 570 1
	nop
	addi	sp,sp,48
	.cfi_def_cfa_offset 0
	jr	ra
	.cfi_endproc
.LFE530:
	.size	remo_mc_math_calc_duty_cycles, .-remo_mc_math_calc_duty_cycles
	.section	.text.esc_ctrl_set_angle_deg,"ax",@progbits
	.align	1
	.globl	esc_ctrl_set_angle_deg
	.type	esc_ctrl_set_angle_deg, @function
esc_ctrl_set_angle_deg:
.LFB531:
	.loc 1 575 1
	.cfi_startproc
	addi	sp,sp,-16
	.cfi_def_cfa_offset 16
	fsw	fa0,12(sp)
	mv	a5,a0
	sb	a5,11(sp)
	.loc 1 576 27
	lbu	a5,11(sp)
	.loc 1 576 38
	lui	a4,%hi(vel_lr_by_angle)
	addi	a4,a4,%lo(vel_lr_by_angle)
	slli	a5,a5,6
	add	a5,a4,a5
	flw	fa5,12(sp)
	fsw	fa5,0(a5)
	.loc 1 577 1
	nop
	addi	sp,sp,16
	.cfi_def_cfa_offset 0
	jr	ra
	.cfi_endproc
.LFE531:
	.size	esc_ctrl_set_angle_deg, .-esc_ctrl_set_angle_deg
	.section	.text.esc_ctrl_set_angle_ctrl_flag,"ax",@progbits
	.align	1
	.globl	esc_ctrl_set_angle_ctrl_flag
	.type	esc_ctrl_set_angle_ctrl_flag, @function
esc_ctrl_set_angle_ctrl_flag:
.LFB532:
	.loc 1 580 1
	.cfi_startproc
	addi	sp,sp,-16
	.cfi_def_cfa_offset 16
	mv	a5,a0
	mv	a4,a1
	sb	a5,15(sp)
	mv	a5,a4
	sb	a5,14(sp)
	.loc 1 581 26
	lbu	a3,14(sp)
	.loc 1 581 37
	lui	a5,%hi(angle_rate_pid)
	addi	a4,a5,%lo(angle_rate_pid)
	li	a5,208
	mul	a5,a3,a5
	add	a5,a4,a5
	lbu	a4,15(sp)
	sb	a4,0(a5)
	.loc 1 582 1
	nop
	addi	sp,sp,16
	.cfi_def_cfa_offset 0
	jr	ra
	.cfi_endproc
.LFE532:
	.size	esc_ctrl_set_angle_ctrl_flag, .-esc_ctrl_set_angle_ctrl_flag
	.section	.text.esc_ctrl_set_angle_ctrl_state,"ax",@progbits
	.align	1
	.globl	esc_ctrl_set_angle_ctrl_state
	.type	esc_ctrl_set_angle_ctrl_state, @function
esc_ctrl_set_angle_ctrl_state:
.LFB533:
	.loc 1 585 1
	.cfi_startproc
	addi	sp,sp,-16
	.cfi_def_cfa_offset 16
	mv	a5,a0
	mv	a4,a1
	sb	a5,15(sp)
	mv	a5,a4
	sb	a5,14(sp)
	.loc 1 586 23
	lbu	a3,14(sp)
	.loc 1 586 35
	lui	a5,%hi(angle_rate_pid)
	addi	a4,a5,%lo(angle_rate_pid)
	li	a5,208
	mul	a5,a3,a5
	add	a5,a4,a5
	lbu	a4,15(sp)
	sb	a4,1(a5)
	.loc 1 587 1
	nop
	addi	sp,sp,16
	.cfi_def_cfa_offset 0
	jr	ra
	.cfi_endproc
.LFE533:
	.size	esc_ctrl_set_angle_ctrl_state, .-esc_ctrl_set_angle_ctrl_state
	.section	.text.esc_ctrl_set_rate_ref,"ax",@progbits
	.align	1
	.globl	esc_ctrl_set_rate_ref
	.type	esc_ctrl_set_rate_ref, @function
esc_ctrl_set_rate_ref:
.LFB534:
	.loc 1 590 1
	.cfi_startproc
	addi	sp,sp,-16
	.cfi_def_cfa_offset 16
	fsw	fa0,12(sp)
	mv	a5,a0
	sb	a5,11(sp)
	.loc 1 591 23
	lbu	a3,11(sp)
	.loc 1 591 28
	lui	a5,%hi(angle_rate_pid)
	addi	a4,a5,%lo(angle_rate_pid)
	li	a5,208
	mul	a5,a3,a5
	add	a5,a4,a5
	flw	fa5,12(sp)
	fsw	fa5,4(a5)
	.loc 1 592 1
	nop
	addi	sp,sp,16
	.cfi_def_cfa_offset 0
	jr	ra
	.cfi_endproc
.LFE534:
	.size	esc_ctrl_set_rate_ref, .-esc_ctrl_set_rate_ref
	.globl	mytest_dps_th
	.section	.sdata.mytest_dps_th,"aw"
	.align	2
	.type	mytest_dps_th, @object
	.size	mytest_dps_th, 4
mytest_dps_th:
	.word	1140457472
	.globl	mytest_dps_data
	.section	.bss.mytest_dps_data,"aw",@nobits
	.align	2
	.type	mytest_dps_data, @object
	.size	mytest_dps_data, 400
mytest_dps_data:
	.zero	400
	.globl	mytest_dps_data_cnt
	.section	.sbss.mytest_dps_data_cnt,"aw",@nobits
	.type	mytest_dps_data_cnt, @object
	.size	mytest_dps_data_cnt, 1
mytest_dps_data_cnt:
	.zero	1
	.section	.text.angle_hall_speed_fit,"ax",@progbits
	.align	1
	.type	angle_hall_speed_fit, @function
angle_hall_speed_fit:
.LFB535:
	.loc 1 598 1
	.cfi_startproc
	addi	sp,sp,-48
	.cfi_def_cfa_offset 48
	sw	ra,44(sp)
	.cfi_offset 1, -4
	mv	a5,a0
	mv	a4,a1
	sh	a5,14(sp)
	mv	a5,a4
	sb	a5,13(sp)
	.loc 1 599 13
	sb	zero,31(sp)
	.loc 1 599 20
	sb	zero,30(sp)
	.loc 1 600 11
	fmv.s.x	fa5,zero
	fsw	fa5,24(sp)
	.loc 1 601 11
	fmv.s.x	fa5,zero
	fsw	fa5,20(sp)
	.loc 1 605 41
	lbu	a5,13(sp)
	lui	a4,%hi(vel_lr_by_angle)
	addi	a4,a4,%lo(vel_lr_by_angle)
	slli	a5,a5,6
	add	a5,a4,a5
	flw	fa4,8(a5)
	.loc 1 605 83
	lbu	a5,13(sp)
	lui	a4,%hi(vel_lr_by_angle)
	addi	a4,a4,%lo(vel_lr_by_angle)
	slli	a5,a5,6
	add	a5,a4,a5
	flw	fa5,0(a5)
	.loc 1 605 17
	fsub.s	fa5,fa4,fa5
	fsw	fa5,20(sp)
	.loc 1 606 8
	flw	fa4,20(sp)
	lui	a5,%hi(.LC9)
	flw	fa5,%lo(.LC9)(a5)
	fgt.s	a5,fa4,fa5
	beq	a5,zero,.L89
	.loc 1 608 31
	lbu	a5,13(sp)
	.loc 1 608 53
	lui	a4,%hi(vel_lr_by_angle)
	addi	a4,a4,%lo(vel_lr_by_angle)
	slli	a5,a5,6
	add	a5,a4,a5
	li	a4,1
	sb	a4,12(a5)
	j	.L72
.L89:
	.loc 1 610 13
	flw	fa4,20(sp)
	lui	a5,%hi(.LC10)
	flw	fa5,%lo(.LC10)(a5)
	flt.s	a5,fa4,fa5
	beq	a5,zero,.L72
	.loc 1 612 31
	lbu	a5,13(sp)
	.loc 1 612 53
	lui	a4,%hi(vel_lr_by_angle)
	addi	a4,a4,%lo(vel_lr_by_angle)
	slli	a5,a5,6
	add	a5,a4,a5
	li	a4,-1
	sb	a4,12(a5)
.L72:
	.loc 1 614 46
	lbu	a5,13(sp)
	lui	a4,%hi(vel_lr_by_angle)
	addi	a4,a4,%lo(vel_lr_by_angle)
	slli	a5,a5,6
	add	a5,a4,a5
	flw	fa4,0(a5)
	.loc 1 614 81
	lbu	a5,13(sp)
	lui	a4,%hi(vel_lr_by_angle)
	addi	a4,a4,%lo(vel_lr_by_angle)
	slli	a5,a5,6
	add	a5,a4,a5
	lb	a5,12(a5)
	.loc 1 614 103
	fcvt.s.w	fa3,a5
	lui	a5,%hi(.LC11)
	flw	fa5,%lo(.LC11)(a5)
	fmul.s	fa5,fa3,fa5
	.loc 1 614 22
	fadd.s	fa5,fa4,fa5
	fsw	fa5,24(sp)
	.loc 1 615 69
	lbu	a4,13(sp)
	.loc 1 615 27
	lbu	a5,13(sp)
	.loc 1 615 69
	lui	a3,%hi(vel_lr_by_angle)
	addi	a3,a3,%lo(vel_lr_by_angle)
	slli	a4,a4,6
	add	a4,a3,a4
	flw	fa5,0(a4)
	.loc 1 615 45
	lui	a4,%hi(vel_lr_by_angle)
	addi	a4,a4,%lo(vel_lr_by_angle)
	slli	a5,a5,6
	add	a5,a4,a5
	fsw	fa5,8(a5)
	.loc 1 618 10
	sb	zero,30(sp)
	.loc 1 619 12
	sb	zero,31(sp)
	.loc 1 619 5
	j	.L74
.L79:
	.loc 1 621 47
	lbu	a5,13(sp)
	lui	a4,%hi(vel_lr_by_angle)
	addi	a4,a4,%lo(vel_lr_by_angle)
	slli	a5,a5,6
	add	a5,a4,a5
	lw	a4,16(a5)
	.loc 1 621 49
	lbu	a5,31(sp)
	slli	a5,a5,2
	add	a5,a4,a5
	flw	fa5,0(a5)
	.loc 1 621 13
	fabs.s	fa4,fa5
	.loc 1 621 12
	lui	a5,%hi(.LC9)
	flw	fa5,%lo(.LC9)(a5)
	fgt.s	a5,fa4,fa5
	bne	a5,zero,.L87
	.loc 1 622 14
	j	.L78
.L87:
	.loc 1 621 68 discriminator 1
	lbu	a5,30(sp)
	addi	a5,a5,1
	sb	a5,30(sp)
	.loc 1 619 57 discriminator 2
	lbu	a5,31(sp)
	addi	a5,a5,1
	sb	a5,31(sp)
.L74:
	.loc 1 619 43 discriminator 1
	lbu	a5,13(sp)
	lui	a4,%hi(vel_lr_by_angle)
	addi	a4,a4,%lo(vel_lr_by_angle)
	slli	a5,a5,6
	add	a5,a4,a5
	lbu	a5,48(a5)
	.loc 1 619 19 discriminator 1
	lbu	a4,31(sp)
	bltu	a4,a5,.L79
.L78:
	.loc 1 625 39
	lbu	a5,13(sp)
	lui	a4,%hi(vel_lr_by_angle)
	addi	a4,a4,%lo(vel_lr_by_angle)
	slli	a5,a5,6
	add	a5,a4,a5
	lbu	a5,48(a5)
	.loc 1 625 8
	lbu	a4,30(sp)
	bltu	a4,a5,.L80
	.loc 1 627 57
	lbu	a5,13(sp)
	.loc 1 627 9
	slli	a5,a5,6
	addi	a4,a5,16
	lui	a5,%hi(vel_lr_by_angle)
	addi	a5,a5,%lo(vel_lr_by_angle)
	add	a3,a4,a5
	.loc 1 627 106
	lbu	a5,13(sp)
	lui	a4,%hi(vel_lr_by_angle)
	addi	a4,a4,%lo(vel_lr_by_angle)
	slli	a5,a5,6
	add	a5,a4,a5
	lb	a5,12(a5)
	mv	a4,a5
	.loc 1 627 128
	li	a5,360
	mul	a5,a4,a5
	.loc 1 627 9
	fcvt.s.w	fa5,a5
	lbu	a5,13(sp)
	lui	a4,%hi(vel_lr_by_angle)
	addi	a4,a4,%lo(vel_lr_by_angle)
	slli	a5,a5,6
	add	a5,a4,a5
	lbu	a5,48(a5)
	mv	a1,a5
	fmv.s	fa1,fa5
	flw	fa0,24(sp)
	mv	a0,a3
	call	linear_regression_offset
	.loc 1 629 31
	lbu	a5,13(sp)
	.loc 1 629 53
	lui	a4,%hi(vel_lr_by_angle)
	addi	a4,a4,%lo(vel_lr_by_angle)
	slli	a5,a5,6
	add	a5,a4,a5
	sb	zero,12(a5)
	j	.L81
.L80:
	.loc 1 633 57
	lbu	a5,13(sp)
	.loc 1 633 9
	slli	a5,a5,6
	addi	a4,a5,16
	lui	a5,%hi(vel_lr_by_angle)
	addi	a5,a5,%lo(vel_lr_by_angle)
	add	a3,a4,a5
	lbu	a5,13(sp)
	lui	a4,%hi(vel_lr_by_angle)
	addi	a4,a4,%lo(vel_lr_by_angle)
	slli	a5,a5,6
	add	a5,a4,a5
	lbu	a5,48(a5)
	mv	a1,a5
	fmv.s.x	fa1,zero
	flw	fa0,24(sp)
	mv	a0,a3
	call	linear_regression_offset
.L81:
	.loc 1 636 69
	lbu	a5,13(sp)
	lui	a4,%hi(vel_lr_by_angle)
	addi	a4,a4,%lo(vel_lr_by_angle)
	slli	a5,a5,6
	add	a5,a4,a5
	flw	fa4,36(a5)
	.loc 1 636 72
	lhu	a5,14(sp)
	fcvt.s.w	fa5,a5
	.loc 1 636 27
	lbu	a5,13(sp)
	.loc 1 636 72
	fmul.s	fa5,fa4,fa5
	.loc 1 636 38
	lui	a4,%hi(vel_lr_by_angle)
	addi	a4,a4,%lo(vel_lr_by_angle)
	slli	a5,a5,6
	add	a5,a4,a5
	fsw	fa5,52(a5)
	.loc 1 638 9
	lui	a5,%hi(mytest_dps_data_cnt)
	lbu	a5,%lo(mytest_dps_data_cnt)(a5)
	addi	a5,a5,1
	andi	a4,a5,0xff
	.loc 1 638 8
	lui	a5,%hi(mytest_dps_data_cnt)
	sb	a4,%lo(mytest_dps_data_cnt)(a5)
	.loc 1 638 9
	lui	a5,%hi(mytest_dps_data_cnt)
	lbu	a4,%lo(mytest_dps_data_cnt)(a5)
	.loc 1 638 8
	li	a5,99
	bleu	a4,a5,.L82
	.loc 1 638 59 discriminator 1
	lui	a5,%hi(mytest_dps_data_cnt)
	sb	zero,%lo(mytest_dps_data_cnt)(a5)
.L82:
	.loc 1 639 66
	lbu	a5,13(sp)
	.loc 1 639 20
	lui	a4,%hi(mytest_dps_data_cnt)
	lbu	a4,%lo(mytest_dps_data_cnt)(a4)
	mv	a3,a4
	.loc 1 639 66
	lui	a4,%hi(vel_lr_by_angle)
	addi	a4,a4,%lo(vel_lr_by_angle)
	slli	a5,a5,6
	add	a5,a4,a5
	flw	fa5,52(a5)
	.loc 1 639 42
	lui	a5,%hi(mytest_dps_data)
	addi	a4,a5,%lo(mytest_dps_data)
	slli	a5,a3,2
	add	a5,a4,a5
	fsw	fa5,0(a5)
	.loc 1 640 36
	lbu	a5,13(sp)
	lui	a4,%hi(vel_lr_by_angle)
	addi	a4,a4,%lo(vel_lr_by_angle)
	slli	a5,a5,6
	add	a5,a4,a5
	flw	fa4,52(a5)
	.loc 1 640 70
	lbu	a5,13(sp)
	lui	a4,%hi(vel_lr_by_angle)
	addi	a4,a4,%lo(vel_lr_by_angle)
	slli	a5,a5,6
	add	a5,a4,a5
	flw	fa5,4(a5)
	.loc 1 640 47
	fsub.s	fa5,fa4,fa5
	.loc 1 640 9
	fabs.s	fa4,fa5
	.loc 1 640 87
	lui	a5,%hi(mytest_dps_th)
	flw	fa5,%lo(mytest_dps_th)(a5)
	.loc 1 640 8
	fgt.s	a5,fa4,fa5
	beq	a5,zero,.L83
	.loc 1 642 66
	lbu	a5,13(sp)
	.loc 1 642 31
	lbu	a3,13(sp)
	.loc 1 642 66
	lui	a4,%hi(vel_lr_by_angle)
	addi	a4,a4,%lo(vel_lr_by_angle)
	slli	a5,a5,6
	add	a5,a4,a5
	flw	fa5,52(a5)
	.loc 1 642 42
	lui	a5,%hi(vel_lr_by_angle)
	addi	a4,a5,%lo(vel_lr_by_angle)
	slli	a5,a3,6
	add	a5,a4,a5
	fsw	fa5,52(a5)
.L83:
	.loc 1 644 67
	lbu	a5,13(sp)
	.loc 1 644 27
	lbu	a3,13(sp)
	.loc 1 644 67
	lui	a4,%hi(vel_lr_by_angle)
	addi	a4,a4,%lo(vel_lr_by_angle)
	slli	a5,a5,6
	add	a5,a4,a5
	flw	fa5,52(a5)
	.loc 1 644 43
	lui	a5,%hi(vel_lr_by_angle)
	addi	a4,a5,%lo(vel_lr_by_angle)
	slli	a5,a3,6
	add	a5,a4,a5
	fsw	fa5,4(a5)
	.loc 1 647 27
	lbu	a5,13(sp)
	lui	a4,%hi(vel_lr_by_angle)
	addi	a4,a4,%lo(vel_lr_by_angle)
	slli	a5,a5,6
	add	a5,a4,a5
	flw	fa4,52(a5)
	.loc 1 647 63
	lbu	a5,13(sp)
	lui	a4,%hi(vel_lr_by_angle)
	addi	a4,a4,%lo(vel_lr_by_angle)
	slli	a5,a5,6
	add	a5,a4,a5
	flw	fa3,56(a5)
	.loc 1 647 105
	lbu	a5,13(sp)
	lui	a4,%hi(vel_lr_by_angle)
	addi	a4,a4,%lo(vel_lr_by_angle)
	slli	a5,a5,6
	add	a5,a4,a5
	flw	fa2,4(a5)
	.loc 1 647 145
	lbu	a5,13(sp)
	lui	a4,%hi(vel_lr_by_angle)
	addi	a4,a4,%lo(vel_lr_by_angle)
	slli	a5,a5,6
	add	a5,a4,a5
	flw	fa5,52(a5)
	.loc 1 647 121
	fsub.s	fa5,fa2,fa5
	.loc 1 647 80
	fmul.s	fa5,fa3,fa5
	.loc 1 647 27
	lbu	a5,13(sp)
	.loc 1 647 38
	fadd.s	fa5,fa4,fa5
	lui	a4,%hi(vel_lr_by_angle)
	addi	a4,a4,%lo(vel_lr_by_angle)
	slli	a5,a5,6
	add	a5,a4,a5
	fsw	fa5,52(a5)
	.loc 1 650 52
	lbu	a5,13(sp)
	.loc 1 650 23
	lbu	a3,13(sp)
	.loc 1 650 52
	lui	a4,%hi(vel_lr_by_angle)
	addi	a4,a4,%lo(vel_lr_by_angle)
	slli	a5,a5,6
	add	a5,a4,a5
	flw	fa5,52(a5)
	.loc 1 650 28
	lui	a5,%hi(angle_rate_pid)
	addi	a4,a5,%lo(angle_rate_pid)
	li	a5,208
	mul	a5,a3,a5
	add	a5,a4,a5
	fsw	fa5,8(a5)
	.loc 1 651 1
	nop
	lw	ra,44(sp)
	.cfi_restore 1
	addi	sp,sp,48
	.cfi_def_cfa_offset 0
	jr	ra
	.cfi_endproc
.LFE535:
	.size	angle_hall_speed_fit, .-angle_hall_speed_fit
	.section	.text.linear_regression_offset,"ax",@progbits
	.align	1
	.type	linear_regression_offset, @function
linear_regression_offset:
.LFB536:
	.loc 1 661 1
	.cfi_startproc
	addi	sp,sp,-32
	.cfi_def_cfa_offset 32
	sw	a0,12(sp)
	fsw	fa0,8(sp)
	fsw	fa1,4(sp)
	mv	a5,a1
	sb	a5,3(sp)
	.loc 1 663 11
	lui	a5,%hi(.LC6)
	flw	fa5,%lo(.LC6)(a5)
	fsw	fa5,24(sp)
	.loc 1 663 28
	fmv.s.x	fa5,zero
	fsw	fa5,20(sp)
	.loc 1 663 44
	fmv.s.x	fa5,zero
	fsw	fa5,16(sp)
	.loc 1 664 13
	sb	zero,31(sp)
	.loc 1 665 32
	lw	a5,12(sp)
	lbu	a5,28(a5)
	.loc 1 665 14
	sh	a5,28(sp)
	.loc 1 667 15
	lw	a5,12(sp)
	lw	a4,0(a5)
	.loc 1 667 18
	lhu	a5,28(sp)
	slli	a5,a5,2
	add	a5,a4,a5
	.loc 1 667 26
	flw	fa5,8(sp)
	fsw	fa5,0(a5)
	.loc 1 668 15
	lw	a5,12(sp)
	lw	a4,0(a5)
	.loc 1 668 18
	lhu	a5,28(sp)
	slli	a5,a5,2
	add	a5,a4,a5
	flw	fa4,0(a5)
	.loc 1 668 15
	lw	a5,12(sp)
	lw	a4,0(a5)
	.loc 1 668 18
	lhu	a5,28(sp)
	slli	a5,a5,2
	add	a5,a4,a5
	.loc 1 668 26
	flw	fa5,4(sp)
	fsub.s	fa5,fa4,fa5
	fsw	fa5,0(a5)
	.loc 1 669 35
	lw	a5,12(sp)
	lw	a4,0(a5)
	.loc 1 669 38
	lhu	a5,28(sp)
	slli	a5,a5,2
	add	a5,a4,a5
	flw	fa5,0(a5)
	.loc 1 669 23
	lw	a5,12(sp)
	fsw	fa5,8(a5)
	.loc 1 670 30
	lbu	a5,3(sp)
	addi	a5,a5,-1
	.loc 1 670 33
	fcvt.s.w	fa4,a5
	.loc 1 670 44
	lw	a5,12(sp)
	lw	a4,0(a5)
	.loc 1 670 47
	lhu	a5,28(sp)
	slli	a5,a5,2
	add	a5,a4,a5
	flw	fa5,0(a5)
	.loc 1 670 33
	fmul.s	fa5,fa4,fa5
	.loc 1 670 24
	lw	a5,12(sp)
	fsw	fa5,12(a5)
	.loc 1 671 12
	sb	zero,31(sp)
	.loc 1 671 5
	j	.L91
.L94:
	.loc 1 673 12
	lhu	a5,28(sp)
	addi	a5,a5,1
	sh	a5,28(sp)
	.loc 1 673 21
	lbu	a5,3(sp)
	slli	a5,a5,16
	srli	a5,a5,16
	.loc 1 673 12
	lhu	a4,28(sp)
	bltu	a4,a5,.L92
	.loc 1 673 36 discriminator 1
	sh	zero,28(sp)
.L92:
	.loc 1 674 6
	lhu	a4,28(sp)
	li	a5,6
	bleu	a4,a5,.L93
	.loc 1 676 10
	sh	zero,28(sp)
.L93:
	.loc 1 678 13
	lw	a5,12(sp)
	lw	a4,0(a5)
	.loc 1 678 16
	lhu	a5,28(sp)
	slli	a5,a5,2
	add	a5,a4,a5
	flw	fa4,0(a5)
	.loc 1 678 13
	lw	a5,12(sp)
	lw	a4,0(a5)
	.loc 1 678 16
	lhu	a5,28(sp)
	slli	a5,a5,2
	add	a5,a4,a5
	.loc 1 678 24
	flw	fa5,4(sp)
	fsub.s	fa5,fa4,fa5
	fsw	fa5,0(a5)
	.loc 1 679 19
	lw	a5,12(sp)
	flw	fa4,8(a5)
	.loc 1 679 40
	lw	a5,12(sp)
	lw	a4,0(a5)
	.loc 1 679 43
	lhu	a5,28(sp)
	slli	a5,a5,2
	add	a5,a4,a5
	flw	fa5,0(a5)
	.loc 1 679 27
	fadd.s	fa5,fa4,fa5
	lw	a5,12(sp)
	fsw	fa5,8(a5)
	.loc 1 680 13
	lw	a5,12(sp)
	flw	fa4,12(a5)
	.loc 1 680 35
	lw	a5,12(sp)
	lw	a4,0(a5)
	.loc 1 680 38
	lhu	a5,28(sp)
	slli	a5,a5,2
	add	a5,a4,a5
	flw	fa3,0(a5)
	.loc 1 680 46
	lbu	a5,31(sp)
	fcvt.s.w	fa5,a5
	fmul.s	fa5,fa3,fa5
	.loc 1 680 22
	fadd.s	fa5,fa4,fa5
	lw	a5,12(sp)
	fsw	fa5,12(a5)
	.loc 1 671 29 discriminator 2
	lbu	a5,31(sp)
	addi	a5,a5,1
	sb	a5,31(sp)
.L91:
	.loc 1 671 19 discriminator 1
	lbu	a4,31(sp)
	.loc 1 671 24 discriminator 1
	lbu	a5,3(sp)
	addi	a5,a5,-1
	.loc 1 671 19 discriminator 1
	blt	a4,a5,.L94
	.loc 1 683 21
	lw	a5,12(sp)
	lbu	a5,28(a5)
	.loc 1 683 9
	addi	a5,a5,1
	andi	a4,a5,0xff
	.loc 1 683 8
	lw	a5,12(sp)
	sb	a4,28(a5)
	.loc 1 683 21
	lw	a5,12(sp)
	lbu	a5,28(a5)
	.loc 1 683 8
	lbu	a4,3(sp)
	bgtu	a4,a5,.L95
	.loc 1 683 55 discriminator 1
	lw	a5,12(sp)
	sb	zero,28(a5)
.L95:
	.loc 1 685 19
	lw	a5,12(sp)
	lbu	a5,29(a5)
	mv	a4,a5
	.loc 1 685 31
	lbu	a5,3(sp)
	addi	a5,a5,-1
	.loc 1 685 8
	bge	a4,a5,.L96
	.loc 1 687 23
	lw	a5,12(sp)
	lbu	a5,29(a5)
	.loc 1 687 29
	addi	a5,a5,1
	andi	a4,a5,0xff
	lw	a5,12(sp)
	sb	a4,29(a5)
	.loc 1 688 13
	j	.L90
.L96:
	.loc 1 691 26
	lw	a5,12(sp)
	flw	fa4,16(a5)
	.loc 1 691 35
	lbu	a5,3(sp)
	fcvt.s.w	fa5,a5
	fmul.s	fa4,fa4,fa5
	.loc 1 691 53
	lw	a5,12(sp)
	flw	fa3,4(a5)
	.loc 1 691 73
	lw	a5,12(sp)
	flw	fa5,4(a5)
	.loc 1 691 61
	fmul.s	fa5,fa3,fa5
	.loc 1 691 14
	fsub.s	fa5,fa4,fa5
	fsw	fa5,24(sp)
	.loc 1 692 28
	lw	a5,12(sp)
	flw	fa4,12(a5)
	.loc 1 692 37
	lbu	a5,3(sp)
	fcvt.s.w	fa5,a5
	fmul.s	fa4,fa4,fa5
	.loc 1 692 55
	lw	a5,12(sp)
	flw	fa3,4(a5)
	.loc 1 692 75
	lw	a5,12(sp)
	flw	fa5,8(a5)
	.loc 1 692 63
	fmul.s	fa5,fa3,fa5
	.loc 1 692 16
	fsub.s	fa5,fa4,fa5
	fsw	fa5,20(sp)
	.loc 1 693 28
	lw	a5,12(sp)
	flw	fa4,16(a5)
	.loc 1 693 49
	lw	a5,12(sp)
	flw	fa5,8(a5)
	.loc 1 693 37
	fmul.s	fa4,fa4,fa5
	.loc 1 693 69
	lw	a5,12(sp)
	flw	fa3,12(a5)
	.loc 1 693 90
	lw	a5,12(sp)
	flw	fa5,4(a5)
	.loc 1 693 78
	fmul.s	fa5,fa3,fa5
	.loc 1 693 16
	fsub.s	fa5,fa4,fa5
	fsw	fa5,16(sp)
	.loc 1 695 32
	flw	fa4,20(sp)
	flw	fa5,24(sp)
	fdiv.s	fa5,fa4,fa5
	.loc 1 695 19
	lw	a5,12(sp)
	fsw	fa5,20(a5)
	.loc 1 696 32
	flw	fa4,16(sp)
	flw	fa5,24(sp)
	fdiv.s	fa5,fa4,fa5
	.loc 1 696 19
	lw	a5,12(sp)
	fsw	fa5,24(a5)
.L90:
	.loc 1 697 1
	addi	sp,sp,32
	.cfi_def_cfa_offset 0
	jr	ra
	.cfi_endproc
.LFE536:
	.size	linear_regression_offset, .-linear_regression_offset
	.section	.text.angle_hall_reset_speed_fit,"ax",@progbits
	.align	1
	.type	angle_hall_reset_speed_fit, @function
angle_hall_reset_speed_fit:
.LFB537:
	.loc 1 701 1
	.cfi_startproc
	addi	sp,sp,-16
	.cfi_def_cfa_offset 16
	mv	a5,a0
	sb	a5,15(sp)
	.loc 1 702 58
	lbu	a4,15(sp)
	.loc 1 702 34
	lbu	a2,15(sp)
	.loc 1 702 39
	mv	a5,a4
	slli	a5,a5,3
	sub	a5,a5,a4
	slli	a5,a5,2
	lui	a4,%hi(vel_lr_data)
	addi	a4,a4,%lo(vel_lr_data)
	add	a4,a5,a4
	.loc 1 702 37
	lui	a5,%hi(vel_lr_by_angle)
	addi	a3,a5,%lo(vel_lr_by_angle)
	slli	a5,a2,6
	add	a5,a3,a5
	sw	a4,16(a5)
	.loc 1 703 27
	lbu	a5,15(sp)
	.loc 1 703 44
	lui	a4,%hi(vel_lr_by_angle)
	addi	a4,a4,%lo(vel_lr_by_angle)
	slli	a5,a5,6
	add	a5,a4,a5
	lui	a4,%hi(.LC12)
	flw	fa5,%lo(.LC12)(a4)
	fsw	fa5,56(a5)
	.loc 1 704 27
	lbu	a5,15(sp)
	.loc 1 704 39
	lui	a4,%hi(vel_lr_by_angle)
	addi	a4,a4,%lo(vel_lr_by_angle)
	slli	a5,a5,6
	add	a5,a4,a5
	li	a4,7
	sb	a4,48(a5)
	.loc 1 706 27
	lbu	a5,15(sp)
	.loc 1 706 43
	lui	a4,%hi(vel_lr_by_angle)
	addi	a4,a4,%lo(vel_lr_by_angle)
	slli	a5,a5,6
	add	a5,a4,a5
	fmv.s.x	fa5,zero
	fsw	fa5,4(a5)
	.loc 1 707 27
	lbu	a5,15(sp)
	.loc 1 707 45
	lui	a4,%hi(vel_lr_by_angle)
	addi	a4,a4,%lo(vel_lr_by_angle)
	slli	a5,a5,6
	add	a5,a4,a5
	fmv.s.x	fa5,zero
	fsw	fa5,8(a5)
	.loc 1 708 27
	lbu	a5,15(sp)
	.loc 1 708 49
	lui	a4,%hi(vel_lr_by_angle)
	addi	a4,a4,%lo(vel_lr_by_angle)
	slli	a5,a5,6
	add	a5,a4,a5
	sb	zero,12(a5)
	.loc 1 709 65
	lbu	a5,15(sp)
	lui	a4,%hi(vel_lr_by_angle)
	addi	a4,a4,%lo(vel_lr_by_angle)
	slli	a5,a5,6
	add	a5,a4,a5
	lbu	a5,48(a5)
	mv	a3,a5
	.loc 1 709 102
	lbu	a5,15(sp)
	lui	a4,%hi(vel_lr_by_angle)
	addi	a4,a4,%lo(vel_lr_by_angle)
	slli	a5,a5,6
	add	a5,a4,a5
	lbu	a5,48(a5)
	.loc 1 709 113
	addi	a5,a5,-1
	.loc 1 709 77
	mul	a5,a3,a5
	.loc 1 709 117
	fcvt.s.w	fa4,a5
	.loc 1 709 34
	lbu	a5,15(sp)
	.loc 1 709 117
	lui	a4,%hi(.LC13)
	flw	fa5,%lo(.LC13)(a4)
	fmul.s	fa5,fa4,fa5
	.loc 1 709 41
	lui	a4,%hi(vel_lr_by_angle)
	addi	a4,a4,%lo(vel_lr_by_angle)
	slli	a5,a5,6
	add	a5,a4,a5
	fsw	fa5,20(a5)
	.loc 1 710 34
	lbu	a5,15(sp)
	.loc 1 710 41
	lui	a4,%hi(vel_lr_by_angle)
	addi	a4,a4,%lo(vel_lr_by_angle)
	slli	a5,a5,6
	add	a5,a4,a5
	fmv.s.x	fa5,zero
	fsw	fa5,24(a5)
	.loc 1 711 34
	lbu	a5,15(sp)
	.loc 1 711 42
	lui	a4,%hi(vel_lr_by_angle)
	addi	a4,a4,%lo(vel_lr_by_angle)
	slli	a5,a5,6
	add	a5,a4,a5
	fmv.s.x	fa5,zero
	fsw	fa5,28(a5)
	.loc 1 712 66
	lbu	a5,15(sp)
	lui	a4,%hi(vel_lr_by_angle)
	addi	a4,a4,%lo(vel_lr_by_angle)
	slli	a5,a5,6
	add	a5,a4,a5
	lbu	a5,48(a5)
	mv	a3,a5
	.loc 1 712 101
	lbu	a5,15(sp)
	lui	a4,%hi(vel_lr_by_angle)
	addi	a4,a4,%lo(vel_lr_by_angle)
	slli	a5,a5,6
	add	a5,a4,a5
	lbu	a5,48(a5)
	.loc 1 712 112
	addi	a5,a5,-1
	.loc 1 712 77
	mul	a4,a3,a5
	.loc 1 713 74
	lbu	a5,15(sp)
	lui	a3,%hi(vel_lr_by_angle)
	addi	a3,a3,%lo(vel_lr_by_angle)
	slli	a5,a5,6
	add	a5,a3,a5
	lbu	a5,48(a5)
	.loc 1 713 51
	slli	a5,a5,1
	.loc 1 713 85
	addi	a5,a5,-1
	.loc 1 712 115
	mul	a4,a4,a5
	.loc 1 713 88
	li	a5,6
	div	a4,a4,a5
	.loc 1 712 34
	lbu	a5,15(sp)
	.loc 1 712 42
	fcvt.s.w	fa5,a4
	lui	a4,%hi(vel_lr_by_angle)
	addi	a4,a4,%lo(vel_lr_by_angle)
	slli	a5,a5,6
	add	a5,a4,a5
	fsw	fa5,32(a5)
	.loc 1 714 34
	lbu	a5,15(sp)
	.loc 1 714 37
	lui	a4,%hi(vel_lr_by_angle)
	addi	a4,a4,%lo(vel_lr_by_angle)
	slli	a5,a5,6
	add	a5,a4,a5
	fmv.s.x	fa5,zero
	fsw	fa5,36(a5)
	.loc 1 715 34
	lbu	a5,15(sp)
	.loc 1 715 37
	lui	a4,%hi(vel_lr_by_angle)
	addi	a4,a4,%lo(vel_lr_by_angle)
	slli	a5,a5,6
	add	a5,a4,a5
	fmv.s.x	fa5,zero
	fsw	fa5,40(a5)
	.loc 1 716 34
	lbu	a5,15(sp)
	.loc 1 716 41
	lui	a4,%hi(vel_lr_by_angle)
	addi	a4,a4,%lo(vel_lr_by_angle)
	slli	a5,a5,6
	add	a5,a4,a5
	sb	zero,44(a5)
	.loc 1 717 34
	lbu	a5,15(sp)
	.loc 1 717 39
	lui	a4,%hi(vel_lr_by_angle)
	addi	a4,a4,%lo(vel_lr_by_angle)
	slli	a5,a5,6
	add	a5,a4,a5
	sb	zero,45(a5)
	.loc 1 718 27
	lbu	a5,15(sp)
	.loc 1 718 45
	lui	a4,%hi(vel_lr_by_angle)
	addi	a4,a4,%lo(vel_lr_by_angle)
	slli	a5,a5,6
	add	a5,a4,a5
	fmv.s.x	fa5,zero
	fsw	fa5,8(a5)
	.loc 1 719 1
	nop
	addi	sp,sp,16
	.cfi_def_cfa_offset 0
	jr	ra
	.cfi_endproc
.LFE537:
	.size	angle_hall_reset_speed_fit, .-angle_hall_reset_speed_fit
	.section	.text.filter_butterworth_lpf_2nd_init,"ax",@progbits
	.align	1
	.type	filter_butterworth_lpf_2nd_init, @function
filter_butterworth_lpf_2nd_init:
.LFB538:
	.loc 1 723 1
	.cfi_startproc
	addi	sp,sp,-48
	.cfi_def_cfa_offset 48
	sw	ra,44(sp)
	.cfi_offset 1, -4
	mv	a5,a0
	mv	a4,a1
	sw	a2,8(sp)
	sh	a5,14(sp)
	mv	a5,a4
	sh	a5,12(sp)
	.loc 1 724 11
	fmv.s.x	fa5,zero
	fsw	fa5,28(sp)
	.loc 1 724 22
	fmv.s.x	fa5,zero
	fsw	fa5,24(sp)
	.loc 1 724 34
	fmv.s.x	fa5,zero
	fsw	fa5,20(sp)
	.loc 1 726 34
	lw	a5,8(sp)
	lhu	a4,14(sp)
	sh	a4,2(a5)
	.loc 1 727 34
	lw	a5,8(sp)
	lhu	a4,12(sp)
	sh	a4,0(a5)
	.loc 1 729 7
	lhu	a5,14(sp)
	bne	a5,zero,.L100
	.loc 1 731 31
	lw	a5,8(sp)
	lui	a4,%hi(.LC6)
	flw	fa5,%lo(.LC6)(a4)
	fsw	fa5,12(a5)
	.loc 1 732 31
	lw	a5,8(sp)
	fmv.s.x	fa5,zero
	fsw	fa5,16(a5)
	.loc 1 733 31
	lw	a5,8(sp)
	fmv.s.x	fa5,zero
	fsw	fa5,20(a5)
	.loc 1 734 31
	lw	a5,8(sp)
	fmv.s.x	fa5,zero
	fsw	fa5,4(a5)
	.loc 1 735 31
	lw	a5,8(sp)
	fmv.s.x	fa5,zero
	fsw	fa5,8(a5)
.L100:
	.loc 1 738 18
	lhu	a5,14(sp)
	fcvt.s.wu	fa4,a5
	.loc 1 738 39
	lhu	a5,12(sp)
	fcvt.s.wu	fa5,a5
	.loc 1 738 8
	fdiv.s	fa5,fa4,fa5
	fsw	fa5,28(sp)
	.loc 1 739 11
	flw	fa4,28(sp)
	lui	a5,%hi(.LC14)
	flw	fa5,%lo(.LC14)(a5)
	fmul.s	fa5,fa4,fa5
	fmv.s	fa0,fa5
	call	tanf
	fsw	fa0,24(sp)
	.loc 1 740 48
	flw	fa4,24(sp)
	lui	a5,%hi(.LC15)
	flw	fa5,%lo(.LC15)(a5)
	fmul.s	fa4,fa4,fa5
	.loc 1 740 14
	lui	a5,%hi(.LC6)
	flw	fa5,%lo(.LC6)(a5)
	fadd.s	fa4,fa4,fa5
	.loc 1 740 60
	flw	fa5,24(sp)
	fmul.s	fa5,fa5,fa5
	.loc 1 740 7
	fadd.s	fa5,fa4,fa5
	fsw	fa5,20(sp)
	.loc 1 742 33
	flw	fa5,24(sp)
	fmul.s	fa4,fa5,fa5
	.loc 1 742 39
	flw	fa5,20(sp)
	fdiv.s	fa5,fa4,fa5
	.loc 1 742 27
	lw	a5,8(sp)
	fsw	fa5,12(a5)
	.loc 1 743 54
	lw	a5,8(sp)
	flw	fa5,12(a5)
	.loc 1 743 34
	fadd.s	fa5,fa5,fa5
	.loc 1 743 27
	lw	a5,8(sp)
	fsw	fa5,16(a5)
	.loc 1 744 47
	lw	a5,8(sp)
	flw	fa5,12(a5)
	.loc 1 744 27
	lw	a5,8(sp)
	fsw	fa5,20(a5)
	.loc 1 745 41
	flw	fa5,24(sp)
	fmul.s	fa4,fa5,fa5
	.loc 1 745 47
	lui	a5,%hi(.LC6)
	flw	fa5,%lo(.LC6)(a5)
	fsub.s	fa5,fa4,fa5
	.loc 1 745 34
	fadd.s	fa4,fa5,fa5
	.loc 1 745 55
	flw	fa5,20(sp)
	fdiv.s	fa5,fa4,fa5
	.loc 1 745 27
	lw	a5,8(sp)
	fsw	fa5,4(a5)
	.loc 1 746 69
	flw	fa4,24(sp)
	lui	a5,%hi(.LC15)
	flw	fa5,%lo(.LC15)(a5)
	fmul.s	fa5,fa4,fa5
	.loc 1 746 35
	lui	a5,%hi(.LC6)
	flw	fa4,%lo(.LC6)(a5)
	fsub.s	fa4,fa4,fa5
	.loc 1 746 81
	flw	fa5,24(sp)
	fmul.s	fa5,fa5,fa5
	.loc 1 746 75
	fadd.s	fa4,fa4,fa5
	.loc 1 746 88
	flw	fa5,20(sp)
	fdiv.s	fa5,fa4,fa5
	.loc 1 746 27
	lw	a5,8(sp)
	fsw	fa5,8(a5)
	.loc 1 749 28
	lw	a5,8(sp)
	fmv.s.x	fa5,zero
	fsw	fa5,24(a5)
	.loc 1 750 28
	lw	a5,8(sp)
	fmv.s.x	fa5,zero
	fsw	fa5,28(a5)
	.loc 1 751 28
	lw	a5,8(sp)
	fmv.s.x	fa5,zero
	fsw	fa5,32(a5)
	.loc 1 752 1
	nop
	lw	ra,44(sp)
	.cfi_restore 1
	addi	sp,sp,48
	.cfi_def_cfa_offset 0
	jr	ra
	.cfi_endproc
.LFE538:
	.size	filter_butterworth_lpf_2nd_init, .-filter_butterworth_lpf_2nd_init
	.section	.text.filter_low_pass_2nd,"ax",@progbits
	.align	1
	.type	filter_low_pass_2nd, @function
filter_low_pass_2nd:
.LFB539:
	.loc 1 756 1
	.cfi_startproc
	addi	sp,sp,-32
	.cfi_def_cfa_offset 32
	fsw	fa0,12(sp)
	sw	a0,8(sp)
	.loc 1 759 51
	lw	a5,8(sp)
	flw	fa4,28(a5)
	.loc 1 759 72
	lw	a5,8(sp)
	flw	fa5,4(a5)
	.loc 1 759 55
	fmul.s	fa5,fa4,fa5
	.loc 1 759 33
	flw	fa4,12(sp)
	fsub.s	fa4,fa4,fa5
	.loc 1 760 43
	lw	a5,8(sp)
	flw	fa3,32(a5)
	.loc 1 760 64
	lw	a5,8(sp)
	flw	fa5,8(a5)
	.loc 1 760 47
	fmul.s	fa5,fa3,fa5
	.loc 1 759 76
	fsub.s	fa5,fa4,fa5
	.loc 1 759 25
	lw	a5,8(sp)
	fsw	fa5,24(a5)
	.loc 1 761 25
	lw	a5,8(sp)
	flw	fa4,24(a5)
	.loc 1 761 46
	lw	a5,8(sp)
	flw	fa5,12(a5)
	.loc 1 761 29
	fmul.s	fa4,fa4,fa5
	.loc 1 761 68
	lw	a5,8(sp)
	flw	fa3,28(a5)
	.loc 1 761 89
	lw	a5,8(sp)
	flw	fa5,16(a5)
	.loc 1 761 72
	fmul.s	fa5,fa3,fa5
	.loc 1 761 50
	fadd.s	fa4,fa4,fa5
	.loc 1 762 25
	lw	a5,8(sp)
	flw	fa3,32(a5)
	.loc 1 762 46
	lw	a5,8(sp)
	flw	fa5,20(a5)
	.loc 1 762 29
	fmul.s	fa5,fa3,fa5
	.loc 1 761 7
	fadd.s	fa5,fa4,fa5
	fsw	fa5,28(sp)
	.loc 1 764 43
	lw	a5,8(sp)
	flw	fa5,28(a5)
	.loc 1 764 25
	lw	a5,8(sp)
	fsw	fa5,32(a5)
	.loc 1 765 43
	lw	a5,8(sp)
	flw	fa5,24(a5)
	.loc 1 765 25
	lw	a5,8(sp)
	fsw	fa5,28(a5)
	.loc 1 767 12
	flw	fa5,28(sp)
	.loc 1 768 1
	fmv.s	fa0,fa5
	addi	sp,sp,32
	.cfi_def_cfa_offset 0
	jr	ra
	.cfi_endproc
.LFE539:
	.size	filter_low_pass_2nd, .-filter_low_pass_2nd
	.section	.text.nonlinear_unit_init,"ax",@progbits
	.align	1
	.type	nonlinear_unit_init, @function
nonlinear_unit_init:
.LFB540:
	.loc 1 771 1
	.cfi_startproc
	addi	sp,sp,-16
	.cfi_def_cfa_offset 16
	fsw	fa0,12(sp)
	fsw	fa1,8(sp)
	fsw	fa2,4(sp)
	sw	a0,0(sp)
	.loc 1 772 38
	flw	fa5,12(sp)
	fmv.s.x	fa4,zero
	fge.s	a5,fa5,fa4
	beq	a5,zero,.L116
	.loc 1 772 38 is_stmt 0 discriminator 1
	flw	fa5,12(sp)
	j	.L106
.L116:
	.loc 1 772 38 discriminator 2
	lw	a5,0(sp)
	flw	fa5,8(a5)
.L106:
	.loc 1 772 21 is_stmt 1 discriminator 4
	lw	a5,0(sp)
	fsw	fa5,8(a5)
	.loc 1 773 31
	flw	fa4,12(sp)
	flw	fa5,8(sp)
	fsub.s	fa5,fa4,fa5
	.loc 1 773 47
	fmv.s.x	fa4,zero
	fle.s	a5,fa5,fa4
	beq	a5,zero,.L117
	.loc 1 773 47 is_stmt 0 discriminator 1
	fmv.s.x	fa5,zero
	j	.L109
.L117:
	.loc 1 773 47 discriminator 2
	flw	fa5,8(sp)
.L109:
	.loc 1 773 24 is_stmt 1 discriminator 4
	lw	a5,0(sp)
	fsw	fa5,0(a5)
	.loc 1 774 37
	flw	fa5,4(sp)
	fmv.s.x	fa4,zero
	fge.s	a5,fa5,fa4
	beq	a5,zero,.L118
	.loc 1 774 37 is_stmt 0 discriminator 1
	flw	fa5,4(sp)
	j	.L112
.L118:
	.loc 1 774 37 discriminator 2
	lw	a5,0(sp)
	flw	fa5,4(a5)
.L112:
	.loc 1 774 20 is_stmt 1 discriminator 4
	lw	a5,0(sp)
	fsw	fa5,4(a5)
	.loc 1 775 1
	nop
	addi	sp,sp,16
	.cfi_def_cfa_offset 0
	jr	ra
	.cfi_endproc
.LFE540:
	.size	nonlinear_unit_init, .-nonlinear_unit_init
	.section	.text.nonlinear_func,"ax",@progbits
	.align	1
	.type	nonlinear_func, @function
nonlinear_func:
.LFB541:
	.loc 1 778 1
	.cfi_startproc
	addi	sp,sp,-32
	.cfi_def_cfa_offset 32
	sw	s0,28(sp)
	.cfi_offset 8, -4
	mv	s0,a0
	fsw	fa0,12(sp)
	.loc 1 779 19
	flw	fa4,8(s0)
	.loc 1 779 36
	flw	fa3,0(s0)
	.loc 1 779 64
	flw	fa2,4(s0)
	.loc 1 779 71
	flw	fa5,12(sp)
	fmul.s	fa2,fa2,fa5
	.loc 1 779 81
	flw	fa5,12(sp)
	fmul.s	fa2,fa2,fa5
	.loc 1 779 55
	lui	a5,%hi(.LC6)
	flw	fa5,%lo(.LC6)(a5)
	fadd.s	fa5,fa2,fa5
	.loc 1 779 47
	fdiv.s	fa5,fa3,fa5
	.loc 1 779 27
	fsub.s	fa5,fa4,fa5
	.loc 1 780 1
	fmv.s	fa0,fa5
	lw	s0,28(sp)
	.cfi_restore 8
	addi	sp,sp,32
	.cfi_def_cfa_offset 0
	jr	ra
	.cfi_endproc
.LFE541:
	.size	nonlinear_func, .-nonlinear_func
	.section	.text.ctrl_pid_controller,"ax",@progbits
	.align	1
	.type	ctrl_pid_controller, @function
ctrl_pid_controller:
.LFB542:
	.loc 1 790 1
	.cfi_startproc
	addi	sp,sp,-64
	.cfi_def_cfa_offset 64
	sw	ra,60(sp)
	.cfi_offset 1, -4
	sw	a0,12(sp)
	.loc 1 795 16
	lw	a5,12(sp)
	flw	fa4,64(a5)
	.loc 1 795 27
	lw	a5,12(sp)
	flw	fa5,64(a5)
	.loc 1 795 11
	fmul.s	fa5,fa4,fa5
	fsw	fa5,32(sp)
	.loc 1 799 35
	lw	a5,12(sp)
	flw	fa4,32(a5)
	.loc 1 799 42
	flw	fa5,32(sp)
	fmul.s	fa4,fa4,fa5
	.loc 1 799 11
	lui	a5,%hi(.LC6)
	flw	fa5,%lo(.LC6)(a5)
	fadd.s	fa5,fa4,fa5
	fsw	fa5,28(sp)
	.loc 1 800 28
	lw	a5,12(sp)
	flw	fa4,28(a5)
	.loc 1 800 11
	flw	fa5,28(sp)
	fdiv.s	fa5,fa4,fa5
	fsw	fa5,28(sp)
	.loc 1 801 30
	lw	a5,12(sp)
	flw	fa4,36(a5)
	.loc 1 801 38
	flw	fa5,28(sp)
	fsub.s	fa5,fa4,fa5
	.loc 1 801 13
	lw	a5,12(sp)
	fsw	fa5,12(a5)
	.loc 1 804 35
	lw	a5,12(sp)
	flw	fa4,44(a5)
	.loc 1 804 42
	flw	fa5,32(sp)
	fmul.s	fa4,fa4,fa5
	.loc 1 804 11
	lui	a5,%hi(.LC6)
	flw	fa5,%lo(.LC6)(a5)
	fadd.s	fa5,fa4,fa5
	fsw	fa5,28(sp)
	.loc 1 805 28
	lw	a5,12(sp)
	flw	fa4,40(a5)
	.loc 1 805 11
	flw	fa5,28(sp)
	fdiv.s	fa5,fa4,fa5
	fsw	fa5,28(sp)
	.loc 1 806 30
	lw	a5,12(sp)
	flw	fa4,48(a5)
	.loc 1 806 38
	flw	fa5,28(sp)
	fsub.s	fa5,fa4,fa5
	.loc 1 806 13
	lw	a5,12(sp)
	fsw	fa5,16(a5)
	.loc 1 809 35
	lw	a5,12(sp)
	flw	fa4,56(a5)
	.loc 1 809 42
	flw	fa5,32(sp)
	fmul.s	fa4,fa4,fa5
	.loc 1 809 11
	lui	a5,%hi(.LC6)
	flw	fa5,%lo(.LC6)(a5)
	fadd.s	fa5,fa4,fa5
	fsw	fa5,28(sp)
	.loc 1 810 28
	lw	a5,12(sp)
	flw	fa4,52(a5)
	.loc 1 810 11
	flw	fa5,28(sp)
	fdiv.s	fa5,fa4,fa5
	fsw	fa5,28(sp)
	.loc 1 811 30
	lw	a5,12(sp)
	flw	fa4,60(a5)
	.loc 1 811 38
	flw	fa5,28(sp)
	fsub.s	fa5,fa4,fa5
	.loc 1 811 13
	lw	a5,12(sp)
	fsw	fa5,24(a5)
	.loc 1 814 22
	lw	a5,12(sp)
	flw	fa4,12(a5)
	.loc 1 814 32
	lw	a5,12(sp)
	flw	fa5,64(a5)
	.loc 1 814 27
	fmul.s	fa5,fa4,fa5
	.loc 1 814 17
	lw	a5,12(sp)
	fsw	fa5,148(a5)
	.loc 1 818 22
	lw	a5,12(sp)
	flw	fa4,152(a5)
	.loc 1 818 36
	lw	a5,12(sp)
	flw	fa3,16(a5)
	.loc 1 818 46
	lw	a5,12(sp)
	flw	fa5,64(a5)
	.loc 1 818 41
	fmul.s	fa5,fa3,fa5
	.loc 1 818 31
	fadd.s	fa5,fa4,fa5
	.loc 1 818 17
	lw	a5,12(sp)
	fsw	fa5,152(a5)
	.loc 1 820 17
	lw	a5,12(sp)
	fmv.s.x	fa5,zero
	fsw	fa5,156(a5)
	.loc 1 832 14
	lw	a5,12(sp)
	flw	fa5,152(a5)
	.loc 1 832 8
	fmv.s.x	fa4,zero
	fgt.s	a5,fa5,fa4
	beq	a5,zero,.L122
	.loc 1 832 38 discriminator 1
	lw	a5,12(sp)
	flw	fa5,64(a5)
	.loc 1 832 31 discriminator 1
	fmv.s.x	fa4,zero
	flt.s	a5,fa5,fa4
	bne	a5,zero,.L124
.L122:
	.loc 1 833 14
	lw	a5,12(sp)
	flw	fa5,152(a5)
	.loc 1 832 53 discriminator 3
	fmv.s.x	fa4,zero
	flt.s	a5,fa5,fa4
	beq	a5,zero,.L125
	.loc 1 833 38
	lw	a5,12(sp)
	flw	fa5,64(a5)
	.loc 1 833 31
	fmv.s.x	fa4,zero
	fgt.s	a5,fa5,fa4
	beq	a5,zero,.L125
.L124:
	.loc 1 835 12
	lw	a5,12(sp)
	flw	fa4,152(a5)
	.loc 1 835 27
	lw	a5,12(sp)
	flw	fa5,20(a5)
	.loc 1 835 21
	fmul.s	fa5,fa4,fa5
	lw	a5,12(sp)
	fsw	fa5,152(a5)
.L125:
	.loc 1 839 12
	lw	a5,12(sp)
	flw	fa4,152(a5)
	.loc 1 839 27
	lw	a5,12(sp)
	flw	fa5,200(a5)
	.loc 1 839 23
	fneg.s	fa5,fa5
	.loc 1 839 8
	flt.s	a5,fa4,fa5
	beq	a5,zero,.L149
	.loc 1 839 57 discriminator 1
	lw	a5,12(sp)
	flw	fa5,200(a5)
	.loc 1 839 53 discriminator 1
	fneg.s	fa5,fa5
	.loc 1 839 51 discriminator 1
	lw	a5,12(sp)
	fsw	fa5,152(a5)
	j	.L130
.L149:
	.loc 1 840 17
	lw	a5,12(sp)
	flw	fa4,152(a5)
	.loc 1 840 31
	lw	a5,12(sp)
	flw	fa5,200(a5)
	.loc 1 840 13
	fgt.s	a5,fa4,fa5
	beq	a5,zero,.L130
	.loc 1 840 60 discriminator 1
	lw	a5,12(sp)
	flw	fa5,200(a5)
	.loc 1 840 55 discriminator 1
	lw	a5,12(sp)
	fsw	fa5,152(a5)
.L130:
	.loc 1 842 12
	lw	a5,12(sp)
	flw	fa5,24(a5)
	.loc 1 842 8
	fmv.s.x	fa4,zero
	feq.s	a5,fa5,fa4
	beq	a5,zero,.L132
	.loc 1 844 21
	lw	a5,12(sp)
	fmv.s.x	fa5,zero
	fsw	fa5,156(a5)
	j	.L133
.L132:
	.loc 1 852 18
	fmv.s.x	fa5,zero
	fsw	fa5,44(sp)
	.loc 1 853 18
	fmv.s.x	fa5,zero
	fsw	fa5,40(sp)
	.loc 1 854 30
	lw	a5,12(sp)
	lbu	a5,100(a5)
	mv	a3,a5
	.loc 1 854 52
	lw	a5,12(sp)
	flw	fa5,64(a5)
	.loc 1 854 47
	lw	a4,12(sp)
	addi	a5,a3,16
	slli	a5,a5,2
	add	a5,a4,a5
	fsw	fa5,12(a5)
.LBB4:
	.loc 1 855 22
	sb	zero,39(sp)
	.loc 1 855 29
	lw	a5,12(sp)
	lbu	a5,100(a5)
	sb	a5,38(sp)
	.loc 1 855 9
	j	.L134
.L136:
	.loc 1 857 16
	lbu	a5,38(sp)
	addi	a5,a5,1
	sb	a5,38(sp)
	lbu	a4,38(sp)
	li	a5,5
	bleu	a4,a5,.L135
	.loc 1 857 48 discriminator 1
	sb	zero,38(sp)
.L135:
	.loc 1 858 42
	lbu	a5,38(sp)
	lw	a4,12(sp)
	addi	a5,a5,16
	slli	a5,a5,2
	add	a5,a4,a5
	flw	fa5,12(a5)
	.loc 1 858 22
	flw	fa4,44(sp)
	fadd.s	fa5,fa4,fa5
	fsw	fa5,44(sp)
	.loc 1 859 42
	lbu	a5,38(sp)
	lw	a4,12(sp)
	addi	a5,a5,16
	slli	a5,a5,2
	add	a5,a4,a5
	flw	fa4,12(a5)
	.loc 1 859 50
	lbu	a5,39(sp)
	fcvt.s.w	fa5,a5
	fmul.s	fa5,fa4,fa5
	.loc 1 859 22
	flw	fa4,40(sp)
	fadd.s	fa5,fa4,fa5
	fsw	fa5,40(sp)
	.loc 1 855 76 discriminator 2
	lbu	a5,39(sp)
	addi	a5,a5,1
	sb	a5,39(sp)
.L134:
	.loc 1 855 59 discriminator 1
	lbu	a4,39(sp)
	li	a5,5
	bleu	a4,a5,.L136
.LBE4:
	.loc 1 862 18
	lw	a5,12(sp)
	lbu	a5,100(a5)
	.loc 1 862 13
	addi	a5,a5,1
	andi	a4,a5,0xff
	.loc 1 862 12
	lw	a5,12(sp)
	sb	a4,100(a5)
	.loc 1 862 18
	lw	a5,12(sp)
	lbu	a4,100(a5)
	.loc 1 862 12
	li	a5,5
	bleu	a4,a5,.L137
	.loc 1 862 70 discriminator 1
	lw	a5,12(sp)
	sb	zero,100(a5)
.L137:
	.loc 1 863 30
	flw	fa4,40(sp)
	lui	a5,%hi(.LC16)
	flw	fa5,%lo(.LC16)(a5)
	fmul.s	fa4,fa4,fa5
	.loc 1 863 46
	lw	a5,12(sp)
	flw	fa3,104(a5)
	.loc 1 863 61
	flw	fa5,44(sp)
	fmul.s	fa5,fa3,fa5
	.loc 1 863 15
	fsub.s	fa5,fa4,fa5
	fsw	fa5,32(sp)
	.loc 1 864 33
	lw	a5,12(sp)
	flw	fa5,108(a5)
	.loc 1 864 20
	flw	fa4,32(sp)
	fdiv.s	fa5,fa4,fa5
	fsw	fa5,24(sp)
	.loc 1 866 22
	lw	a5,12(sp)
	addi	a5,a5,112
	mv	a0,a5
	flw	fa0,24(sp)
	call	filter_low_pass_2nd
	fsw	fa0,24(sp)
	.loc 1 868 26
	lw	a5,12(sp)
	flw	fa4,24(a5)
	.loc 1 868 31
	flw	fa5,24(sp)
	fmul.s	fa5,fa4,fa5
	.loc 1 868 21
	lw	a5,12(sp)
	fsw	fa5,156(a5)
.L133:
	.loc 1 872 23
	lw	a5,12(sp)
	flw	fa4,148(a5)
	.loc 1 872 37
	lw	a5,12(sp)
	flw	fa5,152(a5)
	.loc 1 872 32
	fadd.s	fa4,fa4,fa5
	.loc 1 872 51
	lw	a5,12(sp)
	flw	fa5,156(a5)
	.loc 1 872 46
	fadd.s	fa5,fa4,fa5
	.loc 1 872 18
	lw	a5,12(sp)
	fsw	fa5,160(a5)
	.loc 1 875 12
	lw	a5,12(sp)
	flw	fa4,160(a5)
	.loc 1 875 28
	lw	a5,12(sp)
	flw	fa5,204(a5)
	.loc 1 875 24
	fneg.s	fa5,fa5
	.loc 1 875 8
	flt.s	a5,fa4,fa5
	beq	a5,zero,.L150
	.loc 1 875 60 discriminator 1
	lw	a5,12(sp)
	flw	fa5,204(a5)
	.loc 1 875 56 discriminator 1
	fneg.s	fa5,fa5
	.loc 1 875 54 discriminator 1
	lw	a5,12(sp)
	fsw	fa5,160(a5)
	j	.L140
.L150:
	.loc 1 876 17
	lw	a5,12(sp)
	flw	fa4,160(a5)
	.loc 1 876 32
	lw	a5,12(sp)
	flw	fa5,204(a5)
	.loc 1 876 13
	fgt.s	a5,fa4,fa5
	beq	a5,zero,.L140
	.loc 1 876 63 discriminator 1
	lw	a5,12(sp)
	flw	fa5,204(a5)
	.loc 1 876 58 discriminator 1
	lw	a5,12(sp)
	fsw	fa5,160(a5)
.L140:
	.loc 1 880 24
	lw	a5,12(sp)
	flw	fa5,64(a5)
	.loc 1 880 19
	lw	a5,12(sp)
	fsw	fa5,68(a5)
	.loc 1 882 15
	lw	a5,12(sp)
	flw	fa5,160(a5)
	.loc 1 883 1
	fmv.s	fa0,fa5
	lw	ra,60(sp)
	.cfi_restore 1
	addi	sp,sp,64
	.cfi_def_cfa_offset 0
	jr	ra
	.cfi_endproc
.LFE542:
	.size	ctrl_pid_controller, .-ctrl_pid_controller
	.section	.text.ctrl_pid_controller_init_err_fit,"ax",@progbits
	.align	1
	.type	ctrl_pid_controller_init_err_fit, @function
ctrl_pid_controller_init_err_fit:
.LFB543:
	.loc 1 886 1
	.cfi_startproc
	addi	sp,sp,-32
	.cfi_def_cfa_offset 32
	sw	a0,12(sp)
	.loc 1 887 11
	fmv.s.x	fa5,zero
	fsw	fa5,28(sp)
	.loc 1 888 23
	lw	a5,12(sp)
	fmv.s.x	fa5,zero
	fsw	fa5,104(a5)
.LBB5:
	.loc 1 889 18
	sb	zero,27(sp)
	.loc 1 889 5
	j	.L152
.L153:
	.loc 1 891 12
	lw	a5,12(sp)
	flw	fa4,104(a5)
	.loc 1 891 27
	lbu	a5,27(sp)
	fcvt.s.w	fa5,a5
	fadd.s	fa5,fa4,fa5
	lw	a5,12(sp)
	fsw	fa5,104(a5)
	.loc 1 892 18
	lbu	a4,27(sp)
	lbu	a5,27(sp)
	mul	a5,a4,a5
	.loc 1 892 14
	fcvt.s.w	fa5,a5
	flw	fa4,28(sp)
	fadd.s	fa5,fa4,fa5
	fsw	fa5,28(sp)
	.loc 1 893 26
	lbu	a5,27(sp)
	.loc 1 893 30
	lw	a4,12(sp)
	addi	a5,a5,16
	slli	a5,a5,2
	add	a5,a4,a5
	fmv.s.x	fa5,zero
	fsw	fa5,12(a5)
	.loc 1 889 44 discriminator 3
	lbu	a5,27(sp)
	addi	a5,a5,1
	sb	a5,27(sp)
.L152:
	.loc 1 889 27 discriminator 1
	lbu	a4,27(sp)
	li	a5,5
	bleu	a4,a5,.L153
.LBE5:
	.loc 1 895 39
	flw	fa4,28(sp)
	lui	a5,%hi(.LC16)
	flw	fa5,%lo(.LC16)(a5)
	fmul.s	fa4,fa4,fa5
	.loc 1 895 51
	lw	a5,12(sp)
	flw	fa3,104(a5)
	.loc 1 895 69
	lw	a5,12(sp)
	flw	fa5,104(a5)
	.loc 1 895 65
	fmul.s	fa5,fa3,fa5
	.loc 1 895 45
	fsub.s	fa5,fa4,fa5
	.loc 1 895 24
	lw	a5,12(sp)
	fsw	fa5,108(a5)
	.loc 1 896 24
	lw	a5,12(sp)
	sb	zero,100(a5)
	.loc 1 897 1
	nop
	addi	sp,sp,32
	.cfi_def_cfa_offset 0
	jr	ra
	.cfi_endproc
.LFE543:
	.size	ctrl_pid_controller_init_err_fit, .-ctrl_pid_controller_init_err_fit
	.section	.text.remo_esc_set_torque_cmd,"ax",@progbits
	.align	1
	.globl	remo_esc_set_torque_cmd
	.type	remo_esc_set_torque_cmd, @function
remo_esc_set_torque_cmd:
.LFB544:
	.loc 1 907 1
	.cfi_startproc
	addi	sp,sp,-16
	.cfi_def_cfa_offset 16
	mv	a5,a0
	mv	a4,a1
	sh	a5,14(sp)
	mv	a5,a4
	sb	a5,13(sp)
	.loc 1 909 27
	lbu	a3,13(sp)
	lui	a5,%hi(angle_rate_pid)
	addi	a4,a5,%lo(angle_rate_pid)
	li	a5,208
	mul	a5,a3,a5
	add	a5,a4,a5
	lbu	a5,0(a5)
	.loc 1 909 5
	bne	a5,zero,.L157
	.loc 1 914 17
	lbu	a2,13(sp)
	.loc 1 914 25
	lh	a4,14(sp)
	lui	a5,%hi(esc_ctrl)
	addi	a3,a5,%lo(esc_ctrl)
	li	a5,52
	mul	a5,a2,a5
	add	a5,a3,a5
	sw	a4,0(a5)
	j	.L154
.L157:
	.loc 1 911 3
	nop
.L154:
	.loc 1 915 1
	addi	sp,sp,16
	.cfi_def_cfa_offset 0
	jr	ra
	.cfi_endproc
.LFE544:
	.size	remo_esc_set_torque_cmd, .-remo_esc_set_torque_cmd
	.section	.text.remo_esc_set_el_angle_ptr,"ax",@progbits
	.align	1
	.globl	remo_esc_set_el_angle_ptr
	.type	remo_esc_set_el_angle_ptr, @function
remo_esc_set_el_angle_ptr:
.LFB545:
	.loc 1 918 1
	.cfi_startproc
	addi	sp,sp,-16
	.cfi_def_cfa_offset 16
	sw	a0,12(sp)
	mv	a5,a1
	sb	a5,11(sp)
	.loc 1 919 8
	lbu	a4,11(sp)
	li	a5,2
	bgtu	a4,a5,.L161
	.loc 1 920 20
	lbu	a3,11(sp)
	.loc 1 920 34
	lui	a5,%hi(esc_ctrl)
	addi	a4,a5,%lo(esc_ctrl)
	li	a5,52
	mul	a5,a3,a5
	add	a5,a4,a5
	lw	a4,12(sp)
	sw	a4,12(a5)
	j	.L158
.L161:
	.loc 1 919 21
	nop
.L158:
	.loc 1 921 1
	addi	sp,sp,16
	.cfi_def_cfa_offset 0
	jr	ra
	.cfi_endproc
.LFE545:
	.size	remo_esc_set_el_angle_ptr, .-remo_esc_set_el_angle_ptr
	.section	.text.remo_esc_set_el_angle_offset,"ax",@progbits
	.align	1
	.globl	remo_esc_set_el_angle_offset
	.type	remo_esc_set_el_angle_offset, @function
remo_esc_set_el_angle_offset:
.LFB546:
	.loc 1 924 1
	.cfi_startproc
	addi	sp,sp,-16
	.cfi_def_cfa_offset 16
	mv	a5,a0
	mv	a4,a1
	sh	a5,14(sp)
	mv	a5,a4
	sb	a5,13(sp)
	.loc 1 925 8
	lbu	a4,13(sp)
	li	a5,2
	bgtu	a4,a5,.L165
	.loc 1 926 20
	lbu	a3,13(sp)
	.loc 1 926 37
	lui	a5,%hi(esc_ctrl)
	addi	a4,a5,%lo(esc_ctrl)
	li	a5,52
	mul	a5,a3,a5
	add	a5,a4,a5
	lhu	a4,14(sp)
	sh	a4,16(a5)
	j	.L162
.L165:
	.loc 1 925 21
	nop
.L162:
	.loc 1 927 1
	addi	sp,sp,16
	.cfi_def_cfa_offset 0
	jr	ra
	.cfi_endproc
.LFE546:
	.size	remo_esc_set_el_angle_offset, .-remo_esc_set_el_angle_offset
	.section	.text.remo_esc_set_esc_status,"ax",@progbits
	.align	1
	.globl	remo_esc_set_esc_status
	.type	remo_esc_set_esc_status, @function
remo_esc_set_esc_status:
.LFB547:
	.loc 1 930 1
	.cfi_startproc
	addi	sp,sp,-16
	.cfi_def_cfa_offset 16
	mv	a5,a0
	mv	a4,a1
	sb	a5,15(sp)
	mv	a5,a4
	sb	a5,14(sp)
	.loc 1 931 8
	lbu	a4,14(sp)
	li	a5,2
	bgtu	a4,a5,.L174
	.loc 1 932 8
	lbu	a4,15(sp)
	li	a5,3
	beq	a4,a5,.L169
	.loc 1 932 32 discriminator 1
	lbu	a4,15(sp)
	li	a5,4
	bne	a4,a5,.L170
.L169:
	.loc 1 934 12
	lbu	a4,15(sp)
	li	a5,3
	bne	a4,a5,.L171
	.loc 1 936 32
	lbu	a3,14(sp)
	lui	a5,%hi(esc_ctrl)
	addi	a4,a5,%lo(esc_ctrl)
	li	a5,52
	mul	a5,a3,a5
	add	a5,a4,a5
	lbu	a5,8(a5)
	.loc 1 936 16
	beq	a5,zero,.L172
	.loc 1 936 73 discriminator 1
	lbu	a3,14(sp)
	lui	a5,%hi(esc_ctrl)
	addi	a4,a5,%lo(esc_ctrl)
	li	a5,52
	mul	a5,a3,a5
	add	a5,a4,a5
	lbu	a4,8(a5)
	.loc 1 936 55 discriminator 1
	li	a5,4
	bne	a4,a5,.L175
.L172:
	.loc 1 938 32
	lbu	a3,14(sp)
	.loc 1 938 54
	lui	a5,%hi(esc_ctrl)
	addi	a4,a5,%lo(esc_ctrl)
	li	a5,52
	mul	a5,a3,a5
	add	a5,a4,a5
	li	a4,1
	sb	a4,10(a5)
	.loc 1 939 32
	lbu	a3,14(sp)
	.loc 1 939 56
	lui	a5,%hi(esc_ctrl)
	addi	a4,a5,%lo(esc_ctrl)
	li	a5,52
	mul	a5,a3,a5
	add	a5,a4,a5
	sb	zero,11(a5)
	.loc 1 940 32
	lbu	a3,14(sp)
	.loc 1 940 43
	lui	a5,%hi(esc_ctrl)
	addi	a4,a5,%lo(esc_ctrl)
	li	a5,52
	mul	a5,a3,a5
	add	a5,a4,a5
	li	a4,1
	sb	a4,8(a5)
	.loc 1 934 12
	j	.L175
.L171:
	.loc 1 945 28
	lbu	a3,14(sp)
	.loc 1 945 52
	lui	a5,%hi(esc_ctrl)
	addi	a4,a5,%lo(esc_ctrl)
	li	a5,52
	mul	a5,a3,a5
	add	a5,a4,a5
	li	a4,1
	sb	a4,11(a5)
	.loc 1 946 28
	lbu	a3,14(sp)
	.loc 1 946 39
	lui	a5,%hi(esc_ctrl)
	addi	a4,a5,%lo(esc_ctrl)
	li	a5,52
	mul	a5,a3,a5
	add	a5,a4,a5
	li	a4,1
	sb	a4,8(a5)
	.loc 1 934 12
	j	.L175
.L170:
	.loc 1 949 25
	lbu	a3,14(sp)
	.loc 1 949 36
	lui	a5,%hi(esc_ctrl)
	addi	a4,a5,%lo(esc_ctrl)
	li	a5,52
	mul	a5,a3,a5
	add	a5,a4,a5
	lbu	a4,15(sp)
	sb	a4,8(a5)
	j	.L166
.L174:
	.loc 1 931 21
	nop
	j	.L166
.L175:
	.loc 1 934 12
	nop
.L166:
	.loc 1 951 1
	addi	sp,sp,16
	.cfi_def_cfa_offset 0
	jr	ra
	.cfi_endproc
.LFE547:
	.size	remo_esc_set_esc_status, .-remo_esc_set_esc_status
	.section	.text.remo_esc_set_motors_stop,"ax",@progbits
	.align	1
	.globl	remo_esc_set_motors_stop
	.type	remo_esc_set_motors_stop, @function
remo_esc_set_motors_stop:
.LFB548:
	.loc 1 954 1
	.cfi_startproc
	addi	sp,sp,-16
	.cfi_def_cfa_offset 16
	sw	ra,12(sp)
	.cfi_offset 1, -4
	.loc 1 955 5
	li	a1,0
	li	a0,0
	call	remo_esc_set_esc_status
	.loc 1 956 5
	li	a1,1
	li	a0,0
	call	remo_esc_set_esc_status
	.loc 1 957 5
	li	a1,2
	li	a0,0
	call	remo_esc_set_esc_status
	.loc 1 958 1
	nop
	lw	ra,12(sp)
	.cfi_restore 1
	addi	sp,sp,16
	.cfi_def_cfa_offset 0
	jr	ra
	.cfi_endproc
.LFE548:
	.size	remo_esc_set_motors_stop, .-remo_esc_set_motors_stop
	.section	.text.remo_esc_set_motors_run,"ax",@progbits
	.align	1
	.globl	remo_esc_set_motors_run
	.type	remo_esc_set_motors_run, @function
remo_esc_set_motors_run:
.LFB549:
	.loc 1 961 1
	.cfi_startproc
	addi	sp,sp,-16
	.cfi_def_cfa_offset 16
	sw	ra,12(sp)
	.cfi_offset 1, -4
	.loc 1 962 5
	li	a1,0
	li	a0,4
	call	remo_esc_set_esc_status
	.loc 1 963 5
	li	a1,1
	li	a0,4
	call	remo_esc_set_esc_status
	.loc 1 964 5
	li	a1,2
	li	a0,4
	call	remo_esc_set_esc_status
	.loc 1 965 1
	nop
	lw	ra,12(sp)
	.cfi_restore 1
	addi	sp,sp,16
	.cfi_def_cfa_offset 0
	jr	ra
	.cfi_endproc
.LFE549:
	.size	remo_esc_set_motors_run, .-remo_esc_set_motors_run
	.section	.text.remo_esc_set_esc_align_already_flag,"ax",@progbits
	.align	1
	.globl	remo_esc_set_esc_align_already_flag
	.type	remo_esc_set_esc_align_already_flag, @function
remo_esc_set_esc_align_already_flag:
.LFB550:
	.loc 1 968 1
	.cfi_startproc
	addi	sp,sp,-16
	.cfi_def_cfa_offset 16
	mv	a5,a0
	mv	a4,a1
	sb	a5,15(sp)
	mv	a5,a4
	sb	a5,14(sp)
	.loc 1 969 8
	lbu	a4,14(sp)
	li	a5,2
	bgtu	a4,a5,.L181
	.loc 1 970 20
	lbu	a3,14(sp)
	.loc 1 970 44
	lui	a5,%hi(esc_ctrl)
	addi	a4,a5,%lo(esc_ctrl)
	li	a5,52
	mul	a5,a3,a5
	add	a5,a4,a5
	lbu	a4,15(sp)
	sb	a4,11(a5)
	j	.L178
.L181:
	.loc 1 969 21
	nop
.L178:
	.loc 1 971 1
	addi	sp,sp,16
	.cfi_def_cfa_offset 0
	jr	ra
	.cfi_endproc
.LFE550:
	.size	remo_esc_set_esc_align_already_flag, .-remo_esc_set_esc_align_already_flag
	.section	.text.remo_esc_set_pwm_output_ptr,"ax",@progbits
	.align	1
	.globl	remo_esc_set_pwm_output_ptr
	.type	remo_esc_set_pwm_output_ptr, @function
remo_esc_set_pwm_output_ptr:
.LFB551:
	.loc 1 974 1
	.cfi_startproc
	addi	sp,sp,-16
	.cfi_def_cfa_offset 16
	sw	a0,12(sp)
	mv	a5,a1
	sb	a5,11(sp)
	.loc 1 975 8
	lbu	a4,11(sp)
	li	a5,2
	bgtu	a4,a5,.L185
	.loc 1 976 20
	lbu	a3,11(sp)
	.loc 1 976 42
	lui	a5,%hi(esc_ctrl)
	addi	a4,a5,%lo(esc_ctrl)
	li	a5,52
	mul	a5,a3,a5
	add	a5,a4,a5
	lw	a4,12(sp)
	sw	a4,48(a5)
	j	.L182
.L185:
	.loc 1 975 21
	nop
.L182:
	.loc 1 977 1
	addi	sp,sp,16
	.cfi_def_cfa_offset 0
	jr	ra
	.cfi_endproc
.LFE551:
	.size	remo_esc_set_pwm_output_ptr, .-remo_esc_set_pwm_output_ptr
	.section	.text.remo_esc_get_el_angle_offset_ptr,"ax",@progbits
	.align	1
	.globl	remo_esc_get_el_angle_offset_ptr
	.type	remo_esc_get_el_angle_offset_ptr, @function
remo_esc_get_el_angle_offset_ptr:
.LFB552:
	.loc 1 980 1
	.cfi_startproc
	addi	sp,sp,-16
	.cfi_def_cfa_offset 16
	mv	a5,a0
	sb	a5,15(sp)
	.loc 1 981 28
	lbu	a4,15(sp)
	.loc 1 981 12
	li	a5,52
	mul	a5,a4,a5
	addi	a4,a5,16
	lui	a5,%hi(esc_ctrl)
	addi	a5,a5,%lo(esc_ctrl)
	add	a5,a4,a5
	.loc 1 982 1
	mv	a0,a5
	addi	sp,sp,16
	.cfi_def_cfa_offset 0
	jr	ra
	.cfi_endproc
.LFE552:
	.size	remo_esc_get_el_angle_offset_ptr, .-remo_esc_get_el_angle_offset_ptr
	.section	.text.remo_esc_get_el_angle_offset,"ax",@progbits
	.align	1
	.globl	remo_esc_get_el_angle_offset
	.type	remo_esc_get_el_angle_offset, @function
remo_esc_get_el_angle_offset:
.LFB553:
	.loc 1 985 1
	.cfi_startproc
	addi	sp,sp,-16
	.cfi_def_cfa_offset 16
	mv	a5,a0
	sb	a5,15(sp)
	.loc 1 986 27
	lbu	a3,15(sp)
	lui	a5,%hi(esc_ctrl)
	addi	a4,a5,%lo(esc_ctrl)
	li	a5,52
	mul	a5,a3,a5
	add	a5,a4,a5
	lh	a5,16(a5)
	.loc 1 987 1
	mv	a0,a5
	addi	sp,sp,16
	.cfi_def_cfa_offset 0
	jr	ra
	.cfi_endproc
.LFE553:
	.size	remo_esc_get_el_angle_offset, .-remo_esc_get_el_angle_offset
	.section	.text.remo_esc_get_esc_status,"ax",@progbits
	.align	1
	.globl	remo_esc_get_esc_status
	.type	remo_esc_get_esc_status, @function
remo_esc_get_esc_status:
.LFB554:
	.loc 1 990 1
	.cfi_startproc
	addi	sp,sp,-16
	.cfi_def_cfa_offset 16
	mv	a5,a0
	sb	a5,15(sp)
	.loc 1 991 27
	lbu	a3,15(sp)
	lui	a5,%hi(esc_ctrl)
	addi	a4,a5,%lo(esc_ctrl)
	li	a5,52
	mul	a5,a3,a5
	add	a5,a4,a5
	lbu	a5,8(a5)
	.loc 1 992 1
	mv	a0,a5
	addi	sp,sp,16
	.cfi_def_cfa_offset 0
	jr	ra
	.cfi_endproc
.LFE554:
	.size	remo_esc_get_esc_status, .-remo_esc_get_esc_status
	.section	.text.remo_esc_get_fault_type,"ax",@progbits
	.align	1
	.globl	remo_esc_get_fault_type
	.type	remo_esc_get_fault_type, @function
remo_esc_get_fault_type:
.LFB555:
	.loc 1 995 1
	.cfi_startproc
	addi	sp,sp,-16
	.cfi_def_cfa_offset 16
	mv	a5,a0
	sb	a5,15(sp)
	.loc 1 996 27
	lbu	a3,15(sp)
	lui	a5,%hi(esc_ctrl)
	addi	a4,a5,%lo(esc_ctrl)
	li	a5,52
	mul	a5,a3,a5
	add	a5,a4,a5
	lbu	a5,9(a5)
	.loc 1 997 1
	mv	a0,a5
	addi	sp,sp,16
	.cfi_def_cfa_offset 0
	jr	ra
	.cfi_endproc
.LFE555:
	.size	remo_esc_get_fault_type, .-remo_esc_get_fault_type
	.section	.text.remo_esc_get_align_start_flag,"ax",@progbits
	.align	1
	.globl	remo_esc_get_align_start_flag
	.type	remo_esc_get_align_start_flag, @function
remo_esc_get_align_start_flag:
.LFB556:
	.loc 1 1000 1
	.cfi_startproc
	addi	sp,sp,-16
	.cfi_def_cfa_offset 16
	mv	a5,a0
	sb	a5,15(sp)
	.loc 1 1001 27
	lbu	a3,15(sp)
	lui	a5,%hi(esc_ctrl)
	addi	a4,a5,%lo(esc_ctrl)
	li	a5,52
	mul	a5,a3,a5
	add	a5,a4,a5
	lbu	a5,10(a5)
	.loc 1 1002 1
	mv	a0,a5
	addi	sp,sp,16
	.cfi_def_cfa_offset 0
	jr	ra
	.cfi_endproc
.LFE556:
	.size	remo_esc_get_align_start_flag, .-remo_esc_get_align_start_flag
	.section	.text.remo_esc_get_align_already_flag,"ax",@progbits
	.align	1
	.globl	remo_esc_get_align_already_flag
	.type	remo_esc_get_align_already_flag, @function
remo_esc_get_align_already_flag:
.LFB557:
	.loc 1 1005 1
	.cfi_startproc
	addi	sp,sp,-16
	.cfi_def_cfa_offset 16
	mv	a5,a0
	sb	a5,15(sp)
	.loc 1 1006 27
	lbu	a3,15(sp)
	lui	a5,%hi(esc_ctrl)
	addi	a4,a5,%lo(esc_ctrl)
	li	a5,52
	mul	a5,a3,a5
	add	a5,a4,a5
	lbu	a5,11(a5)
	.loc 1 1007 1
	mv	a0,a5
	addi	sp,sp,16
	.cfi_def_cfa_offset 0
	jr	ra
	.cfi_endproc
.LFE557:
	.size	remo_esc_get_align_already_flag, .-remo_esc_get_align_already_flag
	.section	.text.remo_esc_get_motors_state,"ax",@progbits
	.align	1
	.globl	remo_esc_get_motors_state
	.type	remo_esc_get_motors_state, @function
remo_esc_get_motors_state:
.LFB558:
	.loc 1 1010 1
	.cfi_startproc
	.loc 1 1011 24
	lui	a5,%hi(esc_ctrl)
	addi	a5,a5,%lo(esc_ctrl)
	lbu	a5,61(a5)
	.loc 1 1011 8
	bne	a5,zero,.L199
	.loc 1 1011 64 discriminator 1
	lui	a5,%hi(esc_ctrl)
	addi	a5,a5,%lo(esc_ctrl)
	lbu	a5,113(a5)
	.loc 1 1011 48 discriminator 1
	beq	a5,zero,.L200
.L199:
	.loc 1 1013 20
	li	a5,2
	j	.L201
.L200:
	.loc 1 1015 29
	lui	a5,%hi(esc_ctrl)
	addi	a5,a5,%lo(esc_ctrl)
	lbu	a4,60(a5)
	.loc 1 1015 13
	li	a5,4
	bne	a4,a5,.L202
	.loc 1 1015 67 discriminator 1
	lui	a5,%hi(esc_ctrl)
	addi	a5,a5,%lo(esc_ctrl)
	lbu	a4,112(a5)
	.loc 1 1015 51 discriminator 1
	li	a5,4
	bne	a4,a5,.L202
	.loc 1 1017 20
	li	a5,1
	j	.L201
.L202:
	.loc 1 1019 29
	lui	a5,%hi(esc_ctrl)
	addi	a5,a5,%lo(esc_ctrl)
	lbu	a5,60(a5)
	.loc 1 1019 13
	bne	a5,zero,.L203
	.loc 1 1019 68 discriminator 1
	lui	a5,%hi(esc_ctrl)
	addi	a5,a5,%lo(esc_ctrl)
	lbu	a5,112(a5)
	.loc 1 1019 52 discriminator 1
	bne	a5,zero,.L203
	.loc 1 1021 20
	li	a5,0
	j	.L201
.L203:
	.loc 1 1025 20
	li	a5,3
.L201:
	.loc 1 1028 1
	mv	a0,a5
	ret
	.cfi_endproc
.LFE558:
	.size	remo_esc_get_motors_state, .-remo_esc_get_motors_state
	.section	.sbss.rate_ctrl_init_flag.4,"aw",@nobits
	.align	2
	.type	rate_ctrl_init_flag.4, @object
	.size	rate_ctrl_init_flag.4, 3
rate_ctrl_init_flag.4:
	.zero	3
	.section	.sbss.wait_delay_count.3,"aw",@nobits
	.align	2
	.type	wait_delay_count.3, @object
	.size	wait_delay_count.3, 6
wait_delay_count.3:
	.zero	6
	.section	.sbss.alignment_count.2,"aw",@nobits
	.align	2
	.type	alignment_count.2, @object
	.size	alignment_count.2, 6
alignment_count.2:
	.zero	6
	.section	.sbss.el_angle_sum_count.1,"aw",@nobits
	.align	2
	.type	el_angle_sum_count.1, @object
	.size	el_angle_sum_count.1, 6
el_angle_sum_count.1:
	.zero	6
	.section	.bss.alignment_el_angle_sum.0,"aw",@nobits
	.align	2
	.type	alignment_el_angle_sum.0, @object
	.size	alignment_el_angle_sum.0, 12
alignment_el_angle_sum.0:
	.zero	12
	.section	.rodata
	.align	2
.LC0:
	.word	1126170624
	.align	2
.LC1:
	.word	1008981770
	.align	2
.LC2:
	.word	-1041235968
	.align	2
.LC3:
	.word	1123024896
	.align	2
.LC4:
	.word	-1065353216
	.align	2
.LC5:
	.word	1077936128
	.align	2
.LC6:
	.word	1065353216
	.align	2
.LC7:
	.word	1073741824
	.align	2
.LC8:
	.word	1184645120
	.align	2
.LC9:
	.word	1127481344
	.align	2
.LC10:
	.word	-1020002304
	.align	2
.LC11:
	.word	1135869952
	.align	2
.LC12:
	.word	1062836634
	.align	2
.LC13:
	.word	1056964608
	.align	2
.LC14:
	.word	1078530011
	.align	2
.LC15:
	.word	1068827891
	.align	2
.LC16:
	.word	1086324736
	.text
.Letext0:
	.file 3 "E:/EmbeddedStudio2/include/stdint.h"
	.file 4 "D:/Document/Project/001_FlightControl/code/test_v1_20241112/test_v1/MISC/Include/fixed_point.h"
	.file 5 "D:/Document/Project/001_FlightControl/code/test_v1_20241112/test_v1/APP/Include/esc_ctrl.h"
	.file 6 "D:/Document/Project/001_FlightControl/code/test_v1_20241112/test_v1/HPM5361/Device/Include/hpm_common.h"
	.file 7 "D:/Document/Project/001_FlightControl/code/test_v1_20241112/test_v1/HPM5361/Device/Include/hpm_sysctl_drv.h"
	.file 8 "E:/EmbeddedStudio2/include/math.h"
	.file 9 "D:/Document/Project/001_FlightControl/code/test_v1_20241112/test_v1/BSP/Include/bsp_pwm.h"